(dp0
I1024
((lp1
F8724479.0
aF3258757.0
aF3019083.0
aF7148839.0
aF2883754.0
aF2734179.0
aF8383081.0
aF2898210.0
aF2737327.0
aF81329983.0
aF2550762.0
aF2881981.0
aF9040659.0
aF8598159.0
aF2707827.0
aF5412987.0
aF8575797.0
aF3446586.0
aF2784242.0
aF8682749.0
aF8167447.0
aF7119910.0
aF2382678.0
aF3441953.0
aF8687984.0
aF7961672.0
aF9458170.0
aF3162642.0
aF2906040.0
aF2662634.0
aF2488516.0
aF2694957.0
a(lp2
F5498071.0
aF10252075.0
aF4884587.0
aF10412629.0
aF4489984.0
aF5260382.0
aF12934326.0
aF4894197.0
aF54427363.0
aF4186041.0
aF11449200.0
aF4777296.0
aF4984432.0
aF4830328.0
aF11733462.0
aF4428787.0
aF12449091.0
aF4557826.0
aF5113501.0
aF5109342.0
aF4358400.0
aF4740024.0
aF14232935.0
aF14436469.0
aF16049746.0
aF4889137.0
aF14326474.0
aF4351143.0
aF5017257.0
aF4901173.0
aF5863806.0
aF4579169.0
a(lp3
F9906848.0
aF9707100.0
aF10057443.0
aF10057846.0
aF3683451.0
aF3035772.0
aF8266710.0
aF87113291.0
aF8557647.0
aF3714482.0
aF10824491.0
aF3814708.0
aF3098516.0
aF10612053.0
aF6845552.0
aF11391878.0
aF3469617.0
aF3181810.0
aF12013489.0
aF7576296.0
aF3831426.0
aF3767548.0
aF10740547.0
aF10320098.0
aF3235222.0
aF3447321.0
aF3216444.0
aF11272307.0
aF9816866.0
aF9250419.0
aF10594326.0
aF9817056.0
atp4
sI2048
((lp5
F14681785.0
aF155155855.0
aF11442360.0
aF12719811.0
aF13823933.0
aF14188241.0
aF11251071.0
aF4874834.0
aF5019517.0
aF12202203.0
aF4473365.0
aF4585127.0
aF5072654.0
aF5425916.0
aF14954230.0
aF4736573.0
aF5323506.0
aF4797979.0
aF14501824.0
aF4449273.0
aF4813790.0
aF4267511.0
aF13631595.0
aF13409400.0
aF4319257.0
aF13834073.0
aF5076968.0
aF5334063.0
aF4782142.0
aF4404919.0
aF15261956.0
aF11883799.0
a(lp6
F9099249.0
aF8468811.0
aF19862880.0
aF7733583.0
aF8681333.0
aF9079026.0
aF8057688.0
aF8948621.0
aF23239525.0
aF22655879.0
aF8729987.0
aF8407474.0
aF8063526.0
aF22235428.0
aF8025115.0
aF19107306.0
aF8644574.0
aF8185717.0
aF24253953.0
aF23254921.0
aF8589358.0
aF22350875.0
aF19398105.0
aF24458244.0
aF27167586.0
aF22414191.0
aF20102178.0
aF8500712.0
aF21622601.0
aF21965086.0
aF8834087.0
aF8331330.0
a(lp7
F19147591.0
aF6067367.0
aF17648736.0
aF6263031.0
aF17824036.0
aF6290721.0
aF6336809.0
aF18291257.0
aF20111541.0
aF15670916.0
aF14772448.0
aF5941150.0
aF20030833.0
aF5433299.0
aF5281842.0
aF170020738.0
aF5436834.0
aF18610619.0
aF18885880.0
aF19768027.0
aF17320409.0
aF19466009.0
aF19236141.0
aF16564173.0
aF5829112.0
aF6379079.0
aF6508379.0
aF5590548.0
aF17695278.0
aF6559518.0
aF19009157.0
aF16721915.0
atp8
sI4096
((lp9
F25758917.0
aF23965076.0
aF9158556.0
aF9217538.0
aF8572332.0
aF37198022.0
aF9660151.0
aF24545113.0
aF9155820.0
aF8407960.0
aF8832090.0
aF26278709.0
aF22367283.0
aF9229204.0
aF25774615.0
aF23000579.0
aF25050356.0
aF9565482.0
aF21959929.0
aF24542920.0
aF9043657.0
aF190023084.0
aF67733506.0
aF24779887.0
aF9886970.0
aF24595193.0
aF27268687.0
aF8544289.0
aF25082208.0
aF9291787.0
aF9001297.0
aF9029522.0
a(lp10
F15119389.0
aF36561495.0
aF34642152.0
aF34074021.0
aF39747944.0
aF38192718.0
aF39070791.0
aF36531404.0
aF14989860.0
aF15171001.0
aF16990537.0
aF15418327.0
aF15350271.0
aF36145967.0
aF33949827.0
aF14922119.0
aF15192446.0
aF36425039.0
aF35597825.0
aF15373626.0
aF15387887.0
aF15127689.0
aF15971661.0
aF14955144.0
aF33552822.0
aF32355706.0
aF14645029.0
aF15755495.0
aF15169602.0
aF14773539.0
aF37947192.0
aF30822368.0
a(lp11
F10558895.0
aF26332302.0
aF10473376.0
aF11140708.0
aF34124661.0
aF11288448.0
aF29851437.0
aF9907116.0
aF11262353.0
aF10272099.0
aF10858053.0
aF10627473.0
aF29393727.0
aF9538722.0
aF11000642.0
aF10922050.0
aF32157281.0
aF26847259.0
aF30292430.0
aF10120259.0
aF29170680.0
aF9787263.0
aF28712217.0
aF10459869.0
aF10828306.0
aF10827050.0
aF11083500.0
aF10517653.0
aF31037546.0
aF30598107.0
aF29118547.0
aF11352013.0
atp12
sI8192
((lp13
F16536896.0
aF16547713.0
aF41176856.0
aF39153573.0
aF17631635.0
aF39815149.0
aF17078175.0
aF46774666.0
aF17403000.0
aF41732152.0
aF17189299.0
aF17436655.0
aF19122821.0
aF42795462.0
aF48451585.0
aF49975123.0
aF43390140.0
aF49294475.0
aF16645584.0
aF42553083.0
aF16494818.0
aF16430406.0
aF17735925.0
aF17996330.0
aF39383834.0
aF16426736.0
aF16539389.0
aF16747867.0
aF15942419.0
aF17389829.0
aF16399803.0
aF16562244.0
a(lp14
F66436868.0
aF28575187.0
aF28496381.0
aF29012682.0
aF29047982.0
aF28068485.0
aF28568721.0
aF69759924.0
aF36661600.0
aF28812043.0
aF71138655.0
aF28563451.0
aF28537405.0
aF29151280.0
aF29416603.0
aF76030636.0
aF67893087.0
aF28250977.0
aF66619951.0
aF28513369.0
aF69521230.0
aF28546765.0
aF30130766.0
aF28608850.0
aF29886919.0
aF74433880.0
aF28449057.0
aF29753963.0
aF68806779.0
aF28195472.0
aF29596255.0
aF67160846.0
a(lp15
F18816955.0
aF58961862.0
aF56005289.0
aF20100359.0
aF18784295.0
aF20077704.0
aF53081570.0
aF58802832.0
aF46949262.0
aF45599013.0
aF18997175.0
aF20024627.0
aF59464316.0
aF18595866.0
aF18560942.0
aF19350995.0
aF55676080.0
aF20640143.0
aF19746709.0
aF51662929.0
aF19471053.0
aF19763315.0
aF19733013.0
aF52836627.0
aF28283894.0
aF57270806.0
aF18529272.0
aF20203380.0
aF19740914.0
aF19739883.0
aF18769720.0
aF58125859.0
atp16
s.