(dp0
I1024
((lp1
F1819280.0
aF2040134.0
aF4639036.0
aF1765003.0
aF5532263.0
aF5736037.0
aF4546540.0
aF5429941.0
aF5981142.0
aF4607655.0
aF1730349.0
aF3420690.0
aF2067207.0
aF1872917.0
aF1916652.0
aF1615359.0
aF47939269.0
aF2166028.0
aF1662755.0
aF1695229.0
aF2002150.0
aF1722287.0
aF6820963.0
aF1764584.0
aF19172726.0
aF1830635.0
aF120834940.0
aF1686279.0
aF6182441.0
aF5806297.0
aF1740420.0
aF2142448.0
a(lp2
F43726549.0
aF143692564.0
aF48680816.0
aF48009985.0
aF48487071.0
aF44298259.0
aF47599712.0
aF185812502.0
aF47749084.0
aF91306572.0
aF69623791.0
aF129331197.0
aF49708774.0
aF180233296.0
aF177318218.0
aF174535295.0
aF46989377.0
aF47804717.0
aF58203434.0
aF46561261.0
aF194074380.0
aF185623426.0
aF45601539.0
aF46190824.0
aF46738586.0
aF46592244.0
aF199539867.0
aF199494962.0
aF176800188.0
aF45596492.0
aF46784006.0
aF45187412.0
a(lp3
F4465121.0
aF3578114.0
aF10990646.0
aF3568886.0
aF9262745.0
aF11323956.0
aF9901176.0
aF3424125.0
aF3434538.0
aF7702599.0
aF12407866.0
aF7822556.0
aF10015362.0
aF9384042.0
aF4115775.0
aF9030051.0
aF8928291.0
aF153513469.0
aF9611280.0
aF3567390.0
aF10499466.0
aF10152650.0
aF8910359.0
aF10307291.0
aF3539128.0
aF3585825.0
aF3188311.0
aF143430811.0
aF10030839.0
aF3508903.0
aF3581325.0
aF3451753.0
atp4
sI2048
((lp5
F112979349.0
aF3850457.0
aF3037642.0
aF3264059.0
aF10706080.0
aF3022562.0
aF3052891.0
aF124449711.0
aF10776987.0
aF7847019.0
aF10155602.0
aF3145365.0
aF3219997.0
aF3917227.0
aF3255193.0
aF9973491.0
aF9152231.0
aF12838590.0
aF3442330.0
aF11056310.0
aF7647232.0
aF9569878.0
aF10731530.0
aF4026655.0
aF10191266.0
aF10890613.0
aF10327770.0
aF11029692.0
aF3152379.0
aF9252413.0
aF10980037.0
aF9993437.0
a(lp6
F91237653.0
aF361779992.0
aF92211889.0
aF102350991.0
aF93894028.0
aF97675181.0
aF96290789.0
aF401796412.0
aF97574645.0
aF95885375.0
aF99806499.0
aF374584461.0
aF386608627.0
aF93762108.0
aF357486432.0
aF365394242.0
aF103009102.0
aF95569929.0
aF97114162.0
aF400409619.0
aF90954260.0
aF400540392.0
aF101562330.0
aF386859676.0
aF91061291.0
aF363916391.0
aF363051118.0
aF389177835.0
aF94506313.0
aF93743317.0
aF94493616.0
aF99329724.0
a(lp7
F6776381.0
aF7396965.0
aF6419479.0
aF13754955.0
aF7019234.0
aF6966812.0
aF18587495.0
aF6953270.0
aF6177225.0
aF6617553.0
aF13302545.0
aF7816231.0
aF35381493.0
aF13872928.0
aF14329873.0
aF19869490.0
aF7235950.0
aF16797243.0
aF13032258.0
aF6455233.0
aF7185481.0
aF19732239.0
aF12959622.0
aF14429128.0
aF6108535.0
aF18179005.0
aF6883958.0
aF16529962.0
aF6672875.0
aF6842444.0
aF6676085.0
aF6328038.0
atp8
sI4096
((lp9
F6454052.0
aF13804495.0
aF6574369.0
aF15001498.0
aF18182991.0
aF15770744.0
aF6102429.0
aF6810437.0
aF6741135.0
aF6488612.0
aF20508328.0
aF19362050.0
aF6678303.0
aF6757323.0
aF7216110.0
aF7120757.0
aF6474421.0
aF6075570.0
aF15555957.0
aF6697459.0
aF7250575.0
aF6992248.0
aF19785055.0
aF6479671.0
aF7036653.0
aF16068176.0
aF17805225.0
aF6994381.0
aF6680860.0
aF19942841.0
aF14434169.0
aF20695205.0
a(lp10
F198064910.0
aF656345852.0
aF636718144.0
aF184685814.0
aF195785959.0
aF190390514.0
aF195450299.0
aF190006863.0
aF184376311.0
aF635826608.0
aF616525302.0
aF749083844.0
aF235079580.0
aF194488250.0
aF209214272.0
aF434187962.0
aF191492553.0
aF194651706.0
aF195013770.0
aF630501514.0
aF637264820.0
aF766578305.0
aF198946717.0
aF196965317.0
aF326115617.0
aF302690957.0
aF191758930.0
aF688520199.0
aF333161132.0
aF185101721.0
aF204314414.0
aF543269782.0
a(lp11
F25293792.0
aF12790238.0
aF12291288.0
aF28459644.0
aF132122693.0
aF13493480.0
aF25678497.0
aF25404778.0
aF12809966.0
aF13096460.0
aF27501151.0
aF29510322.0
aF33204206.0
aF12575954.0
aF26247666.0
aF13353156.0
aF13665915.0
aF12565848.0
aF31299212.0
aF24784259.0
aF12414327.0
aF12760971.0
aF34176025.0
aF12139574.0
aF29571382.0
aF31482846.0
aF26620163.0
aF12933459.0
aF13240879.0
aF29537104.0
aF30456118.0
aF12048238.0
atp12
sI8192
((lp13
F13685173.0
aF13648382.0
aF35668604.0
aF12169272.0
aF12603651.0
aF13029363.0
aF13325612.0
aF29345236.0
aF12558597.0
aF31802979.0
aF33971386.0
aF36945119.0
aF12315428.0
aF12211450.0
aF12023994.0
aF15750166.0
aF13020192.0
aF12310219.0
aF35597446.0
aF12064269.0
aF13893177.0
aF31433966.0
aF33990525.0
aF13490945.0
aF13550153.0
aF12691586.0
aF58825661.0
aF38886551.0
aF32358014.0
aF12212503.0
aF13136618.0
aF12741785.0
a(lp14
F555569759.0
aF995682843.0
aF431433648.0
aF402788448.0
aF395618283.0
aF607428125.0
aF384456381.0
aF388202163.0
aF388863560.0
aF387311813.0
aF1023964022.0
aF393073925.0
aF403079116.0
aF404549056.0
aF418485469.0
aF975873841.0
aF757366114.0
aF546661578.0
aF1040617434.0
aF800250905.0
aF683309434.0
aF1058016635.0
aF425572001.0
aF974180316.0
aF508897852.0
aF439908303.0
aF930676459.0
aF970307835.0
aF432128212.0
aF529943368.0
aF386050657.0
aF535716857.0
a(lp15
F59893792.0
aF23902765.0
aF56572776.0
aF25053335.0
aF54755683.0
aF25021357.0
aF152815046.0
aF25264782.0
aF25302295.0
aF58435868.0
aF58579811.0
aF58251393.0
aF61112789.0
aF58180474.0
aF44356954.0
aF69234487.0
aF27623165.0
aF64297858.0
aF26475704.0
aF26168706.0
aF26245410.0
aF65793796.0
aF27103782.0
aF44408204.0
aF60103609.0
aF170217747.0
aF59259462.0
aF25708945.0
aF24701844.0
aF48835159.0
aF49081560.0
aF30102125.0
atp16
s.