# command-line-arguments
os.(*File).close STEXT dupok nosplit size=26 args=0x18 locals=0x0
	0x0000 00000 (<autogenerated>:1)	TEXT	os.(*File).close(SB), DUPOK|NOSPLIT|ABIInternal, $0-24
	0x0000 00000 (<autogenerated>:1)	PCDATA	$0, $-2
	0x0000 00000 (<autogenerated>:1)	PCDATA	$1, $-2
	0x0000 00000 (<autogenerated>:1)	FUNCDATA	$0, gclocals·e6397a44f8e1b6e77d0f200b4fba5269(SB)
	0x0000 00000 (<autogenerated>:1)	FUNCDATA	$1, gclocals·69c1753bd5f81501d95132d08af04464(SB)
	0x0000 00000 (<autogenerated>:1)	FUNCDATA	$2, gclocals·9fb7f0986f647f17cb53dda1484e0f7a(SB)
	0x0000 00000 (<autogenerated>:1)	PCDATA	$0, $1
	0x0000 00000 (<autogenerated>:1)	PCDATA	$1, $1
	0x0000 00000 (<autogenerated>:1)	MOVQ	""..this+8(SP), AX
	0x0005 00005 (<autogenerated>:1)	MOVQ	(AX), AX
	0x0008 00008 (<autogenerated>:1)	PCDATA	$0, $0
	0x0008 00008 (<autogenerated>:1)	PCDATA	$1, $0
	0x0008 00008 (<autogenerated>:1)	MOVQ	AX, ""..this+8(SP)
	0x000d 00013 (<autogenerated>:1)	XORPS	X0, X0
	0x0010 00016 (<autogenerated>:1)	MOVUPS	X0, "".~r0+16(SP)
	0x0015 00021 (<autogenerated>:1)	JMP	os.(*file).close(SB)
	0x0000 48 8b 44 24 08 48 8b 00 48 89 44 24 08 0f 57 c0  H.D$.H..H.D$..W.
	0x0010 0f 11 44 24 10 e9 00 00 00 00                    ..D$......
	rel 22+4 t=8 os.(*file).close+0
"".max STEXT nosplit size=27 args=0x18 locals=0x0
	0x0000 00000 (/home/vimuth/projects/parallely/diesel/src/bfs-dist/worker.go:19)	TEXT	"".max(SB), NOSPLIT|ABIInternal, $0-24
	0x0000 00000 (/home/vimuth/projects/parallely/diesel/src/bfs-dist/worker.go:19)	PCDATA	$0, $-2
	0x0000 00000 (/home/vimuth/projects/parallely/diesel/src/bfs-dist/worker.go:19)	PCDATA	$1, $-2
	0x0000 00000 (/home/vimuth/projects/parallely/diesel/src/bfs-dist/worker.go:19)	FUNCDATA	$0, gclocals·33cdeccccebe80329f1fdbee7f5874cb(SB)
	0x0000 00000 (/home/vimuth/projects/parallely/diesel/src/bfs-dist/worker.go:19)	FUNCDATA	$1, gclocals·33cdeccccebe80329f1fdbee7f5874cb(SB)
	0x0000 00000 (/home/vimuth/projects/parallely/diesel/src/bfs-dist/worker.go:19)	FUNCDATA	$2, gclocals·33cdeccccebe80329f1fdbee7f5874cb(SB)
	0x0000 00000 (/home/vimuth/projects/parallely/diesel/src/bfs-dist/worker.go:20)	PCDATA	$0, $0
	0x0000 00000 (/home/vimuth/projects/parallely/diesel/src/bfs-dist/worker.go:20)	PCDATA	$1, $0
	0x0000 00000 (/home/vimuth/projects/parallely/diesel/src/bfs-dist/worker.go:20)	MOVQ	"".x+8(SP), AX
	0x0005 00005 (/home/vimuth/projects/parallely/diesel/src/bfs-dist/worker.go:20)	MOVQ	"".y+16(SP), CX
	0x000a 00010 (/home/vimuth/projects/parallely/diesel/src/bfs-dist/worker.go:20)	CMPQ	AX, CX
	0x000d 00013 (/home/vimuth/projects/parallely/diesel/src/bfs-dist/worker.go:20)	JLE	21
	0x000f 00015 (/home/vimuth/projects/parallely/diesel/src/bfs-dist/worker.go:21)	MOVQ	AX, "".~r2+24(SP)
	0x0014 00020 (/home/vimuth/projects/parallely/diesel/src/bfs-dist/worker.go:21)	RET
	0x0015 00021 (/home/vimuth/projects/parallely/diesel/src/bfs-dist/worker.go:23)	MOVQ	CX, "".~r2+24(SP)
	0x001a 00026 (/home/vimuth/projects/parallely/diesel/src/bfs-dist/worker.go:23)	RET
	0x0000 48 8b 44 24 08 48 8b 4c 24 10 48 39 c8 7e 06 48  H.D$.H.L$.H9.~.H
	0x0010 89 44 24 18 c3 48 89 4c 24 18 c3                 .D$..H.L$..
"".min STEXT nosplit size=27 args=0x18 locals=0x0
	0x0000 00000 (/home/vimuth/projects/parallely/diesel/src/bfs-dist/worker.go:27)	TEXT	"".min(SB), NOSPLIT|ABIInternal, $0-24
	0x0000 00000 (/home/vimuth/projects/parallely/diesel/src/bfs-dist/worker.go:27)	PCDATA	$0, $-2
	0x0000 00000 (/home/vimuth/projects/parallely/diesel/src/bfs-dist/worker.go:27)	PCDATA	$1, $-2
	0x0000 00000 (/home/vimuth/projects/parallely/diesel/src/bfs-dist/worker.go:27)	FUNCDATA	$0, gclocals·33cdeccccebe80329f1fdbee7f5874cb(SB)
	0x0000 00000 (/home/vimuth/projects/parallely/diesel/src/bfs-dist/worker.go:27)	FUNCDATA	$1, gclocals·33cdeccccebe80329f1fdbee7f5874cb(SB)
	0x0000 00000 (/home/vimuth/projects/parallely/diesel/src/bfs-dist/worker.go:27)	FUNCDATA	$2, gclocals·33cdeccccebe80329f1fdbee7f5874cb(SB)
	0x0000 00000 (/home/vimuth/projects/parallely/diesel/src/bfs-dist/worker.go:28)	PCDATA	$0, $0
	0x0000 00000 (/home/vimuth/projects/parallely/diesel/src/bfs-dist/worker.go:28)	PCDATA	$1, $0
	0x0000 00000 (/home/vimuth/projects/parallely/diesel/src/bfs-dist/worker.go:28)	MOVQ	"".x+8(SP), AX
	0x0005 00005 (/home/vimuth/projects/parallely/diesel/src/bfs-dist/worker.go:28)	MOVQ	"".y+16(SP), CX
	0x000a 00010 (/home/vimuth/projects/parallely/diesel/src/bfs-dist/worker.go:28)	CMPQ	AX, CX
	0x000d 00013 (/home/vimuth/projects/parallely/diesel/src/bfs-dist/worker.go:28)	JGE	21
	0x000f 00015 (/home/vimuth/projects/parallely/diesel/src/bfs-dist/worker.go:29)	MOVQ	AX, "".~r2+24(SP)
	0x0014 00020 (/home/vimuth/projects/parallely/diesel/src/bfs-dist/worker.go:29)	RET
	0x0015 00021 (/home/vimuth/projects/parallely/diesel/src/bfs-dist/worker.go:31)	MOVQ	CX, "".~r2+24(SP)
	0x001a 00026 (/home/vimuth/projects/parallely/diesel/src/bfs-dist/worker.go:31)	RET
	0x0000 48 8b 44 24 08 48 8b 4c 24 10 48 39 c8 7d 06 48  H.D$.H.L$.H9.}.H
	0x0010 89 44 24 18 c3 48 89 4c 24 18 c3                 .D$..H.L$..
"".convertToFloat STEXT nosplit size=20 args=0x10 locals=0x0
	0x0000 00000 (/home/vimuth/projects/parallely/diesel/src/bfs-dist/worker.go:35)	TEXT	"".convertToFloat(SB), NOSPLIT|ABIInternal, $0-16
	0x0000 00000 (/home/vimuth/projects/parallely/diesel/src/bfs-dist/worker.go:35)	PCDATA	$0, $-2
	0x0000 00000 (/home/vimuth/projects/parallely/diesel/src/bfs-dist/worker.go:35)	PCDATA	$1, $-2
	0x0000 00000 (/home/vimuth/projects/parallely/diesel/src/bfs-dist/worker.go:35)	FUNCDATA	$0, gclocals·33cdeccccebe80329f1fdbee7f5874cb(SB)
	0x0000 00000 (/home/vimuth/projects/parallely/diesel/src/bfs-dist/worker.go:35)	FUNCDATA	$1, gclocals·33cdeccccebe80329f1fdbee7f5874cb(SB)
	0x0000 00000 (/home/vimuth/projects/parallely/diesel/src/bfs-dist/worker.go:35)	FUNCDATA	$2, gclocals·33cdeccccebe80329f1fdbee7f5874cb(SB)
	0x0000 00000 (/home/vimuth/projects/parallely/diesel/src/bfs-dist/worker.go:36)	PCDATA	$0, $0
	0x0000 00000 (/home/vimuth/projects/parallely/diesel/src/bfs-dist/worker.go:36)	PCDATA	$1, $0
	0x0000 00000 (/home/vimuth/projects/parallely/diesel/src/bfs-dist/worker.go:36)	MOVQ	"".x+8(SP), AX
	0x0005 00005 (/home/vimuth/projects/parallely/diesel/src/bfs-dist/worker.go:36)	XORPS	X0, X0
	0x0008 00008 (/home/vimuth/projects/parallely/diesel/src/bfs-dist/worker.go:36)	CVTSQ2SD	AX, X0
	0x000d 00013 (/home/vimuth/projects/parallely/diesel/src/bfs-dist/worker.go:36)	MOVSD	X0, "".~r1+16(SP)
	0x0013 00019 (/home/vimuth/projects/parallely/diesel/src/bfs-dist/worker.go:36)	RET
	0x0000 48 8b 44 24 08 0f 57 c0 f2 48 0f 2a c0 f2 0f 11  H.D$..W..H.*....
	0x0010 44 24 10 c3                                      D$..
"".func_0 STEXT size=1075 args=0x0 locals=0x5b370
	0x0000 00000 (/home/vimuth/projects/parallely/diesel/src/bfs-dist/worker.go:42)	TEXT	"".func_0(SB), ABIInternal, $373616-0
	0x0000 00000 (/home/vimuth/projects/parallely/diesel/src/bfs-dist/worker.go:42)	MOVQ	(TLS), CX
	0x0009 00009 (/home/vimuth/projects/parallely/diesel/src/bfs-dist/worker.go:42)	MOVQ	16(CX), SI
	0x000d 00013 (/home/vimuth/projects/parallely/diesel/src/bfs-dist/worker.go:42)	PCDATA	$0, $-2
	0x000d 00013 (/home/vimuth/projects/parallely/diesel/src/bfs-dist/worker.go:42)	CMPQ	SI, $-1314
	0x0014 00020 (/home/vimuth/projects/parallely/diesel/src/bfs-dist/worker.go:42)	JEQ	1065
	0x001a 00026 (/home/vimuth/projects/parallely/diesel/src/bfs-dist/worker.go:42)	LEAQ	896(SP), AX
	0x0022 00034 (/home/vimuth/projects/parallely/diesel/src/bfs-dist/worker.go:42)	SUBQ	SI, AX
	0x0025 00037 (/home/vimuth/projects/parallely/diesel/src/bfs-dist/worker.go:42)	CMPQ	AX, $374384
	0x002b 00043 (/home/vimuth/projects/parallely/diesel/src/bfs-dist/worker.go:42)	JLS	1065
	0x0031 00049 (/home/vimuth/projects/parallely/diesel/src/bfs-dist/worker.go:42)	PCDATA	$0, $-1
	0x0031 00049 (/home/vimuth/projects/parallely/diesel/src/bfs-dist/worker.go:42)	SUBQ	$373616, SP
	0x0038 00056 (/home/vimuth/projects/parallely/diesel/src/bfs-dist/worker.go:42)	MOVQ	BP, 373608(SP)
	0x0040 00064 (/home/vimuth/projects/parallely/diesel/src/bfs-dist/worker.go:42)	LEAQ	373608(SP), BP
	0x0048 00072 (/home/vimuth/projects/parallely/diesel/src/bfs-dist/worker.go:42)	PCDATA	$0, $-2
	0x0048 00072 (/home/vimuth/projects/parallely/diesel/src/bfs-dist/worker.go:42)	PCDATA	$1, $-2
	0x0048 00072 (/home/vimuth/projects/parallely/diesel/src/bfs-dist/worker.go:42)	FUNCDATA	$0, gclocals·7d2d5fca80364273fb07d5820a76fef4(SB)
	0x0048 00072 (/home/vimuth/projects/parallely/diesel/src/bfs-dist/worker.go:42)	FUNCDATA	$1, gclocals·80b0d9ad63c242a848af3702a9ec7107(SB)
	0x0048 00072 (/home/vimuth/projects/parallely/diesel/src/bfs-dist/worker.go:42)	FUNCDATA	$2, gclocals·01cda64cba4a0424cb0086e223bd57f6(SB)
	0x0048 00072 (/home/vimuth/projects/parallely/diesel/src/bfs-dist/worker.go:42)	FUNCDATA	$3, "".func_0.stkobj(SB)
	0x0048 00072 (/home/vimuth/projects/parallely/diesel/src/bfs-dist/worker.go:43)	PCDATA	$0, $0
	0x0048 00072 (/home/vimuth/projects/parallely/diesel/src/bfs-dist/worker.go:43)	PCDATA	$1, $0
	0x0048 00072 (/home/vimuth/projects/parallely/diesel/src/bfs-dist/worker.go:43)	MOVQ	"".Num_threads(SB), AX
	0x004f 00079 (/home/vimuth/projects/parallely/diesel/src/bfs-dist/worker.go:43)	MOVQ	AX, (SP)
	0x0053 00083 (/home/vimuth/projects/parallely/diesel/src/bfs-dist/worker.go:43)	PCDATA	$0, $1
	0x0053 00083 (/home/vimuth/projects/parallely/diesel/src/bfs-dist/worker.go:43)	LEAQ	go.string."amqp://guest:guest@localhost:5672/"(SB), AX
	0x005a 00090 (/home/vimuth/projects/parallely/diesel/src/bfs-dist/worker.go:43)	PCDATA	$0, $0
	0x005a 00090 (/home/vimuth/projects/parallely/diesel/src/bfs-dist/worker.go:43)	MOVQ	AX, 8(SP)
	0x005f 00095 (/home/vimuth/projects/parallely/diesel/src/bfs-dist/worker.go:43)	MOVQ	$34, 16(SP)
	0x0068 00104 (/home/vimuth/projects/parallely/diesel/src/bfs-dist/worker.go:43)	CALL	dieseldist.InitQueues(SB)
	0x006d 00109 (/home/vimuth/projects/parallely/diesel/src/bfs-dist/worker.go:44)	MOVQ	"".Num_threads(SB), AX
	0x0074 00116 (/home/vimuth/projects/parallely/diesel/src/bfs-dist/worker.go:44)	MOVQ	AX, (SP)
	0x0078 00120 (/home/vimuth/projects/parallely/diesel/src/bfs-dist/worker.go:44)	CALL	dieseldist.WaitForWorkers(SB)
	0x007d 00125 (/home/vimuth/projects/parallely/diesel/src/bfs-dist/worker.go:49)	PCDATA	$0, $2
	0x007d 00125 (/home/vimuth/projects/parallely/diesel/src/bfs-dist/worker.go:49)	LEAQ	"".distance+80112(SP), DI
	0x0085 00133 (/home/vimuth/projects/parallely/diesel/src/bfs-dist/worker.go:49)	MOVL	$36682, CX
	0x008a 00138 (/home/vimuth/projects/parallely/diesel/src/bfs-dist/worker.go:49)	XORL	AX, AX
	0x008c 00140 (/home/vimuth/projects/parallely/diesel/src/bfs-dist/worker.go:49)	PCDATA	$0, $0
	0x008c 00140 (/home/vimuth/projects/parallely/diesel/src/bfs-dist/worker.go:49)	REP
	0x008d 00141 (/home/vimuth/projects/parallely/diesel/src/bfs-dist/worker.go:49)	STOSQ
	0x008f 00143 (/home/vimuth/projects/parallely/diesel/src/bfs-dist/worker.go:50)	PCDATA	$0, $2
	0x008f 00143 (/home/vimuth/projects/parallely/diesel/src/bfs-dist/worker.go:50)	LEAQ	"".slice+112(SP), DI
	0x0094 00148 (/home/vimuth/projects/parallely/diesel/src/bfs-dist/worker.go:50)	MOVL	$10000, CX
	0x0099 00153 (/home/vimuth/projects/parallely/diesel/src/bfs-dist/worker.go:50)	PCDATA	$0, $0
	0x0099 00153 (/home/vimuth/projects/parallely/diesel/src/bfs-dist/worker.go:50)	REP
	0x009a 00154 (/home/vimuth/projects/parallely/diesel/src/bfs-dist/worker.go:50)	STOSQ
	0x009c 00156 (/home/vimuth/projects/parallely/diesel/src/bfs-dist/worker.go:58)	PCDATA	$0, $2
	0x009c 00156 (/home/vimuth/projects/parallely/diesel/src/bfs-dist/worker.go:58)	LEAQ	"".distance+80112(SP), DI
	0x00a4 00164 (/home/vimuth/projects/parallely/diesel/src/bfs-dist/worker.go:58)	PCDATA	$0, $3
	0x00a4 00164 (/home/vimuth/projects/parallely/diesel/src/bfs-dist/worker.go:58)	LEAQ	"".DistGlobal(SB), SI
	0x00ab 00171 (/home/vimuth/projects/parallely/diesel/src/bfs-dist/worker.go:58)	MOVL	$36682, CX
	0x00b0 00176 (/home/vimuth/projects/parallely/diesel/src/bfs-dist/worker.go:58)	PCDATA	$0, $0
	0x00b0 00176 (/home/vimuth/projects/parallely/diesel/src/bfs-dist/worker.go:58)	REP
	0x00b1 00177 (/home/vimuth/projects/parallely/diesel/src/bfs-dist/worker.go:58)	MOVSQ
	0x00b3 00179 (/home/vimuth/projects/parallely/diesel/src/bfs-dist/worker.go:60)	MOVQ	"".Q+8(SB), AX
	0x00ba 00186 (/home/vimuth/projects/parallely/diesel/src/bfs-dist/worker.go:60)	MOVQ	AX, ""..autotmp_56+104(SP)
	0x00bf 00191 (/home/vimuth/projects/parallely/diesel/src/bfs-dist/worker.go:60)	PCDATA	$0, $4
	0x00bf 00191 (/home/vimuth/projects/parallely/diesel/src/bfs-dist/worker.go:60)	MOVQ	"".Q(SB), CX
	0x00c6 00198 (/home/vimuth/projects/parallely/diesel/src/bfs-dist/worker.go:60)	PCDATA	$1, $1
	0x00c6 00198 (/home/vimuth/projects/parallely/diesel/src/bfs-dist/worker.go:60)	MOVQ	CX, ""..autotmp_57+373568(SP)
	0x00ce 00206 (/home/vimuth/projects/parallely/diesel/src/bfs-dist/worker.go:60)	XORL	DX, DX
	0x00d0 00208 (/home/vimuth/projects/parallely/diesel/src/bfs-dist/worker.go:60)	JMP	294
	0x00d2 00210 (/home/vimuth/projects/parallely/diesel/src/bfs-dist/worker.go:60)	PCDATA	$0, $0
	0x00d2 00210 (/home/vimuth/projects/parallely/diesel/src/bfs-dist/worker.go:60)	MOVQ	SI, "".q+64(SP)
	0x00d7 00215 (/home/vimuth/projects/parallely/diesel/src/bfs-dist/worker.go:68)	MOVQ	BX, "".myend+80(SP)
	0x00dc 00220 (/home/vimuth/projects/parallely/diesel/src/bfs-dist/worker.go:67)	MOVQ	DX, (SP)
	0x00e0 00224 (/home/vimuth/projects/parallely/diesel/src/bfs-dist/worker.go:67)	MOVQ	$0, 8(SP)
	0x00e9 00233 (/home/vimuth/projects/parallely/diesel/src/bfs-dist/worker.go:67)	MOVQ	SI, 16(SP)
	0x00ee 00238 (/home/vimuth/projects/parallely/diesel/src/bfs-dist/worker.go:67)	CALL	dieseldist.SendInt(SB)
	0x00f3 00243 (/home/vimuth/projects/parallely/diesel/src/bfs-dist/worker.go:68)	MOVQ	"".myend+80(SP), AX
	0x00f8 00248 (/home/vimuth/projects/parallely/diesel/src/bfs-dist/worker.go:68)	MOVQ	AX, (SP)
	0x00fc 00252 (/home/vimuth/projects/parallely/diesel/src/bfs-dist/worker.go:68)	MOVQ	$0, 8(SP)
	0x0105 00261 (/home/vimuth/projects/parallely/diesel/src/bfs-dist/worker.go:68)	MOVQ	"".q+64(SP), AX
	0x010a 00266 (/home/vimuth/projects/parallely/diesel/src/bfs-dist/worker.go:68)	MOVQ	AX, 16(SP)
	0x010f 00271 (/home/vimuth/projects/parallely/diesel/src/bfs-dist/worker.go:68)	CALL	dieseldist.SendInt(SB)
	0x0114 00276 (/home/vimuth/projects/parallely/diesel/src/bfs-dist/worker.go:60)	MOVQ	""..autotmp_56+104(SP), AX
	0x0119 00281 (/home/vimuth/projects/parallely/diesel/src/bfs-dist/worker.go:60)	PCDATA	$0, $4
	0x0119 00281 (/home/vimuth/projects/parallely/diesel/src/bfs-dist/worker.go:60)	MOVQ	""..autotmp_57+373568(SP), CX
	0x0121 00289 (/home/vimuth/projects/parallely/diesel/src/bfs-dist/worker.go:60)	MOVQ	""..autotmp_58+96(SP), DX
	0x0126 00294 (/home/vimuth/projects/parallely/diesel/src/bfs-dist/worker.go:60)	CMPQ	DX, AX
	0x0129 00297 (/home/vimuth/projects/parallely/diesel/src/bfs-dist/worker.go:60)	JGE	373
	0x012b 00299 (/home/vimuth/projects/parallely/diesel/src/bfs-dist/worker.go:63)	MOVQ	"".Num_threads(SB), BX
	0x0132 00306 (/home/vimuth/projects/parallely/diesel/src/bfs-dist/worker.go:63)	DECQ	BX
	0x0135 00309 (/home/vimuth/projects/parallely/diesel/src/bfs-dist/worker.go:63)	CMPQ	DX, BX
	0x0138 00312 (/home/vimuth/projects/parallely/diesel/src/bfs-dist/worker.go:63)	SETEQ	BL
	0x013b 00315 (/home/vimuth/projects/parallely/diesel/src/bfs-dist/worker.go:60)	PCDATA	$0, $0
	0x013b 00315 (/home/vimuth/projects/parallely/diesel/src/bfs-dist/worker.go:60)	MOVQ	(CX)(DX*8), SI
	0x013f 00319 (/home/vimuth/projects/parallely/diesel/src/bfs-dist/worker.go:62)	MOVQ	"".NodesPerThread(SB), DI
	0x0146 00326 (/home/vimuth/projects/parallely/diesel/src/bfs-dist/worker.go:61)	MOVQ	DX, R8
	0x0149 00329 (/home/vimuth/projects/parallely/diesel/src/bfs-dist/worker.go:61)	IMULQ	DI, DX
	0x014d 00333 (/home/vimuth/projects/parallely/diesel/src/bfs-dist/worker.go:62)	INCQ	R8
	0x0150 00336 (/home/vimuth/projects/parallely/diesel/src/bfs-dist/worker.go:62)	MOVQ	R8, ""..autotmp_58+96(SP)
	0x0155 00341 (/home/vimuth/projects/parallely/diesel/src/bfs-dist/worker.go:62)	IMULQ	R8, DI
	0x0159 00345 (/home/vimuth/projects/parallely/diesel/src/bfs-dist/worker.go:63)	MOVBLZX	BL, BX
	0x015c 00348 (/home/vimuth/projects/parallely/diesel/src/bfs-dist/worker.go:64)	TESTQ	BX, BX
	0x015f 00351 (/home/vimuth/projects/parallely/diesel/src/bfs-dist/worker.go:64)	JEQ	365
	0x0161 00353 (/home/vimuth/projects/parallely/diesel/src/bfs-dist/worker.go:65)	MOVQ	"".Num_nodes(SB), BX
	0x0168 00360 (/home/vimuth/projects/parallely/diesel/src/bfs-dist/worker.go:65)	JMP	210
	0x016d 00365 (/home/vimuth/projects/parallely/diesel/src/bfs-dist/worker.go:68)	MOVQ	DI, BX
	0x0170 00368 (/home/vimuth/projects/parallely/diesel/src/bfs-dist/worker.go:64)	JMP	210
	0x0175 00373 (/home/vimuth/projects/parallely/diesel/src/bfs-dist/worker.go:71)	PCDATA	$0, $-1
	0x0175 00373 (/home/vimuth/projects/parallely/diesel/src/bfs-dist/worker.go:71)	PCDATA	$1, $-1
	0x0175 00373 (<unknown line number>)	NOP
	0x0175 00373 (/home/vimuth/projects/parallely/diesel/src/dieseldist/diesel-dist.go:86)	PCDATA	$0, $0
	0x0175 00373 (/home/vimuth/projects/parallely/diesel/src/dieseldist/diesel-dist.go:86)	PCDATA	$1, $0
	0x0175 00373 (/home/vimuth/projects/parallely/diesel/src/dieseldist/diesel-dist.go:86)	CALL	time.Now(SB)
	0x017a 00378 (/home/vimuth/projects/parallely/diesel/src/dieseldist/diesel-dist.go:86)	PCDATA	$0, $1
	0x017a 00378 (/home/vimuth/projects/parallely/diesel/src/dieseldist/diesel-dist.go:86)	MOVQ	16(SP), AX
	0x017f 00383 (/home/vimuth/projects/parallely/diesel/src/dieseldist/diesel-dist.go:86)	MOVQ	(SP), CX
	0x0183 00387 (/home/vimuth/projects/parallely/diesel/src/dieseldist/diesel-dist.go:86)	MOVQ	8(SP), DX
	0x0188 00392 (/home/vimuth/projects/parallely/diesel/src/dieseldist/diesel-dist.go:86)	MOVQ	CX, dieseldist.startTime(SB)
	0x018f 00399 (/home/vimuth/projects/parallely/diesel/src/dieseldist/diesel-dist.go:86)	MOVQ	DX, dieseldist.startTime+8(SB)
	0x0196 00406 (/home/vimuth/projects/parallely/diesel/src/dieseldist/diesel-dist.go:86)	PCDATA	$0, $-2
	0x0196 00406 (/home/vimuth/projects/parallely/diesel/src/dieseldist/diesel-dist.go:86)	PCDATA	$1, $-2
	0x0196 00406 (/home/vimuth/projects/parallely/diesel/src/dieseldist/diesel-dist.go:86)	CMPL	runtime.writeBarrier(SB), $0
	0x019d 00413 (/home/vimuth/projects/parallely/diesel/src/dieseldist/diesel-dist.go:86)	JNE	1021
	0x01a3 00419 (/home/vimuth/projects/parallely/diesel/src/dieseldist/diesel-dist.go:86)	MOVQ	AX, dieseldist.startTime+16(SB)
	0x01aa 00426 (/home/vimuth/projects/parallely/diesel/src/dieseldist/diesel-dist.go:86)	PCDATA	$0, $0
	0x01aa 00426 (/home/vimuth/projects/parallely/diesel/src/dieseldist/diesel-dist.go:86)	PCDATA	$1, $0
	0x01aa 00426 (/home/vimuth/projects/parallely/diesel/src/dieseldist/diesel-dist.go:86)	XORL	AX, AX
	0x01ac 00428 (/home/vimuth/projects/parallely/diesel/src/bfs-dist/worker.go:71)	JMP	789
	0x01b1 00433 (/home/vimuth/projects/parallely/diesel/src/bfs-dist/worker.go:73)	PCDATA	$0, $5
	0x01b1 00433 (/home/vimuth/projects/parallely/diesel/src/bfs-dist/worker.go:73)	PCDATA	$1, $1
	0x01b1 00433 (/home/vimuth/projects/parallely/diesel/src/bfs-dist/worker.go:73)	MOVQ	BX, ""..autotmp_58+96(SP)
	0x01b6 00438 (/home/vimuth/projects/parallely/diesel/src/bfs-dist/worker.go:73)	PCDATA	$0, $0
	0x01b6 00438 (/home/vimuth/projects/parallely/diesel/src/bfs-dist/worker.go:73)	MOVQ	(DX)(BX*8), AX
	0x01ba 00442 (/home/vimuth/projects/parallely/diesel/src/bfs-dist/worker.go:74)	PCDATA	$0, $4
	0x01ba 00442 (/home/vimuth/projects/parallely/diesel/src/bfs-dist/worker.go:74)	LEAQ	"".distance+80112(SP), CX
	0x01c2 00450 (/home/vimuth/projects/parallely/diesel/src/bfs-dist/worker.go:74)	PCDATA	$0, $0
	0x01c2 00450 (/home/vimuth/projects/parallely/diesel/src/bfs-dist/worker.go:74)	MOVQ	CX, (SP)
	0x01c6 00454 (/home/vimuth/projects/parallely/diesel/src/bfs-dist/worker.go:74)	MOVQ	$36682, 8(SP)
	0x01cf 00463 (/home/vimuth/projects/parallely/diesel/src/bfs-dist/worker.go:74)	MOVQ	$36682, 16(SP)
	0x01d8 00472 (/home/vimuth/projects/parallely/diesel/src/bfs-dist/worker.go:74)	MOVQ	$0, 24(SP)
	0x01e1 00481 (/home/vimuth/projects/parallely/diesel/src/bfs-dist/worker.go:74)	MOVQ	AX, 32(SP)
	0x01e6 00486 (/home/vimuth/projects/parallely/diesel/src/bfs-dist/worker.go:74)	CALL	dieseldist.SendIntArray(SB)
	0x01eb 00491 (/home/vimuth/projects/parallely/diesel/src/bfs-dist/worker.go:73)	MOVQ	""..autotmp_58+96(SP), AX
	0x01f0 00496 (/home/vimuth/projects/parallely/diesel/src/bfs-dist/worker.go:73)	LEAQ	1(AX), BX
	0x01f4 00500 (/home/vimuth/projects/parallely/diesel/src/bfs-dist/worker.go:72)	MOVQ	"".__temp_0+88(SP), AX
	0x01f9 00505 (/home/vimuth/projects/parallely/diesel/src/bfs-dist/worker.go:73)	MOVQ	""..autotmp_56+104(SP), CX
	0x01fe 00510 (/home/vimuth/projects/parallely/diesel/src/bfs-dist/worker.go:73)	PCDATA	$0, $5
	0x01fe 00510 (/home/vimuth/projects/parallely/diesel/src/bfs-dist/worker.go:73)	MOVQ	""..autotmp_57+373568(SP), DX
	0x0206 00518 (/home/vimuth/projects/parallely/diesel/src/bfs-dist/worker.go:73)	CMPQ	BX, CX
	0x0209 00521 (/home/vimuth/projects/parallely/diesel/src/bfs-dist/worker.go:73)	JLT	433
	0x020b 00523 (/home/vimuth/projects/parallely/diesel/src/bfs-dist/worker.go:77)	PCDATA	$0, $0
	0x020b 00523 (/home/vimuth/projects/parallely/diesel/src/bfs-dist/worker.go:77)	PCDATA	$1, $0
	0x020b 00523 (/home/vimuth/projects/parallely/diesel/src/bfs-dist/worker.go:77)	MOVQ	"".Q+8(SB), CX
	0x0212 00530 (/home/vimuth/projects/parallely/diesel/src/bfs-dist/worker.go:77)	MOVQ	CX, ""..autotmp_56+104(SP)
	0x0217 00535 (/home/vimuth/projects/parallely/diesel/src/bfs-dist/worker.go:77)	PCDATA	$0, $5
	0x0217 00535 (/home/vimuth/projects/parallely/diesel/src/bfs-dist/worker.go:77)	MOVQ	"".Q(SB), DX
	0x021e 00542 (/home/vimuth/projects/parallely/diesel/src/bfs-dist/worker.go:77)	PCDATA	$1, $1
	0x021e 00542 (/home/vimuth/projects/parallely/diesel/src/bfs-dist/worker.go:77)	MOVQ	DX, ""..autotmp_57+373568(SP)
	0x0226 00550 (/home/vimuth/projects/parallely/diesel/src/bfs-dist/worker.go:77)	XORL	BX, BX
	0x0228 00552 (/home/vimuth/projects/parallely/diesel/src/bfs-dist/worker.go:77)	JMP	633
	0x022a 00554 (/home/vimuth/projects/parallely/diesel/src/bfs-dist/worker.go:91)	PCDATA	$0, $0
	0x022a 00554 (/home/vimuth/projects/parallely/diesel/src/bfs-dist/worker.go:91)	SHLQ	$3, SI
	0x022e 00558 (/home/vimuth/projects/parallely/diesel/src/bfs-dist/worker.go:91)	MOVQ	BX, "".distance+80112(SP)(SI*1)
	0x0236 00566 (/home/vimuth/projects/parallely/diesel/src/bfs-dist/worker.go:92)	INCQ	DX
	0x0239 00569 (/home/vimuth/projects/parallely/diesel/src/bfs-dist/worker.go:87)	CMPQ	DX, AX
	0x023c 00572 (/home/vimuth/projects/parallely/diesel/src/bfs-dist/worker.go:87)	JGE	610
	0x023e 00574 (/home/vimuth/projects/parallely/diesel/src/bfs-dist/worker.go:89)	CMPQ	DX, $10000
	0x0245 00581 (/home/vimuth/projects/parallely/diesel/src/bfs-dist/worker.go:89)	JCC	1051
	0x024b 00587 (/home/vimuth/projects/parallely/diesel/src/bfs-dist/worker.go:89)	MOVQ	"".slice+112(SP)(DX*8), BX
	0x0250 00592 (/home/vimuth/projects/parallely/diesel/src/bfs-dist/worker.go:90)	LEAQ	(CX)(DX*1), SI
	0x0254 00596 (/home/vimuth/projects/parallely/diesel/src/bfs-dist/worker.go:91)	CMPQ	SI, $36682
	0x025b 00603 (/home/vimuth/projects/parallely/diesel/src/bfs-dist/worker.go:91)	JCS	554
	0x025d 00605 (/home/vimuth/projects/parallely/diesel/src/bfs-dist/worker.go:91)	JMP	1038
	0x0262 00610 (/home/vimuth/projects/parallely/diesel/src/bfs-dist/worker.go:72)	MOVQ	"".__temp_0+88(SP), AX
	0x0267 00615 (/home/vimuth/projects/parallely/diesel/src/bfs-dist/worker.go:77)	MOVQ	""..autotmp_56+104(SP), CX
	0x026c 00620 (/home/vimuth/projects/parallely/diesel/src/bfs-dist/worker.go:77)	PCDATA	$0, $5
	0x026c 00620 (/home/vimuth/projects/parallely/diesel/src/bfs-dist/worker.go:77)	MOVQ	""..autotmp_57+373568(SP), DX
	0x0274 00628 (/home/vimuth/projects/parallely/diesel/src/bfs-dist/worker.go:77)	MOVQ	""..autotmp_58+96(SP), BX
	0x0279 00633 (/home/vimuth/projects/parallely/diesel/src/bfs-dist/worker.go:77)	CMPQ	BX, CX
	0x027c 00636 (/home/vimuth/projects/parallely/diesel/src/bfs-dist/worker.go:77)	JGE	786
	0x0282 00642 (/home/vimuth/projects/parallely/diesel/src/bfs-dist/worker.go:80)	MOVQ	"".Num_threads(SB), SI
	0x0289 00649 (/home/vimuth/projects/parallely/diesel/src/bfs-dist/worker.go:80)	DECQ	SI
	0x028c 00652 (/home/vimuth/projects/parallely/diesel/src/bfs-dist/worker.go:80)	CMPQ	BX, SI
	0x028f 00655 (/home/vimuth/projects/parallely/diesel/src/bfs-dist/worker.go:80)	SETEQ	SIB
	0x0293 00659 (/home/vimuth/projects/parallely/diesel/src/bfs-dist/worker.go:77)	PCDATA	$0, $0
	0x0293 00659 (/home/vimuth/projects/parallely/diesel/src/bfs-dist/worker.go:77)	MOVQ	(DX)(BX*8), DI
	0x0297 00663 (/home/vimuth/projects/parallely/diesel/src/bfs-dist/worker.go:78)	MOVQ	"".NodesPerThread(SB), R8
	0x029e 00670 (/home/vimuth/projects/parallely/diesel/src/bfs-dist/worker.go:78)	MOVQ	BX, R9
	0x02a1 00673 (/home/vimuth/projects/parallely/diesel/src/bfs-dist/worker.go:78)	IMULQ	R8, BX
	0x02a5 00677 (/home/vimuth/projects/parallely/diesel/src/bfs-dist/worker.go:78)	MOVQ	BX, "".mystart+72(SP)
	0x02aa 00682 (/home/vimuth/projects/parallely/diesel/src/bfs-dist/worker.go:79)	INCQ	R9
	0x02ad 00685 (/home/vimuth/projects/parallely/diesel/src/bfs-dist/worker.go:79)	MOVQ	R9, ""..autotmp_58+96(SP)
	0x02b2 00690 (/home/vimuth/projects/parallely/diesel/src/bfs-dist/worker.go:79)	IMULQ	R9, R8
	0x02b6 00694 (/home/vimuth/projects/parallely/diesel/src/bfs-dist/worker.go:80)	MOVBLZX	SIB, SI
	0x02ba 00698 (/home/vimuth/projects/parallely/diesel/src/bfs-dist/worker.go:81)	TESTQ	SI, SI
	0x02bd 00701 (/home/vimuth/projects/parallely/diesel/src/bfs-dist/worker.go:81)	JEQ	781
	0x02bf 00703 (/home/vimuth/projects/parallely/diesel/src/bfs-dist/worker.go:82)	MOVQ	"".Num_nodes(SB), SI
	0x02c6 00710 (/home/vimuth/projects/parallely/diesel/src/bfs-dist/worker.go:85)	MOVQ	SI, "".myend+80(SP)
	0x02cb 00715 (/home/vimuth/projects/parallely/diesel/src/bfs-dist/worker.go:84)	PCDATA	$0, $1
	0x02cb 00715 (/home/vimuth/projects/parallely/diesel/src/bfs-dist/worker.go:84)	LEAQ	"".slice+112(SP), AX
	0x02d0 00720 (/home/vimuth/projects/parallely/diesel/src/bfs-dist/worker.go:84)	PCDATA	$0, $0
	0x02d0 00720 (/home/vimuth/projects/parallely/diesel/src/bfs-dist/worker.go:84)	MOVQ	AX, (SP)
	0x02d4 00724 (/home/vimuth/projects/parallely/diesel/src/bfs-dist/worker.go:84)	MOVQ	$10000, 8(SP)
	0x02dd 00733 (/home/vimuth/projects/parallely/diesel/src/bfs-dist/worker.go:84)	MOVQ	$10000, 16(SP)
	0x02e6 00742 (/home/vimuth/projects/parallely/diesel/src/bfs-dist/worker.go:84)	MOVQ	$0, 24(SP)
	0x02ef 00751 (/home/vimuth/projects/parallely/diesel/src/bfs-dist/worker.go:84)	MOVQ	DI, 32(SP)
	0x02f4 00756 (/home/vimuth/projects/parallely/diesel/src/bfs-dist/worker.go:84)	CALL	dieseldist.ReceiveIntArray(SB)
	0x02f9 00761 (/home/vimuth/projects/parallely/diesel/src/bfs-dist/worker.go:85)	MOVQ	"".myend+80(SP), AX
	0x02fe 00766 (/home/vimuth/projects/parallely/diesel/src/bfs-dist/worker.go:85)	MOVQ	"".mystart+72(SP), CX
	0x0303 00771 (/home/vimuth/projects/parallely/diesel/src/bfs-dist/worker.go:85)	SUBQ	CX, AX
	0x0306 00774 (/home/vimuth/projects/parallely/diesel/src/bfs-dist/worker.go:85)	XORL	DX, DX
	0x0308 00776 (/home/vimuth/projects/parallely/diesel/src/bfs-dist/worker.go:87)	JMP	569
	0x030d 00781 (/home/vimuth/projects/parallely/diesel/src/bfs-dist/worker.go:85)	MOVQ	R8, SI
	0x0310 00784 (/home/vimuth/projects/parallely/diesel/src/bfs-dist/worker.go:81)	JMP	710
	0x0312 00786 (/home/vimuth/projects/parallely/diesel/src/bfs-dist/worker.go:72)	PCDATA	$1, $0
	0x0312 00786 (/home/vimuth/projects/parallely/diesel/src/bfs-dist/worker.go:72)	INCQ	AX
	0x0315 00789 (/home/vimuth/projects/parallely/diesel/src/bfs-dist/worker.go:72)	CMPQ	AX, $10
	0x0319 00793 (/home/vimuth/projects/parallely/diesel/src/bfs-dist/worker.go:72)	JGE	834
	0x031b 00795 (/home/vimuth/projects/parallely/diesel/src/bfs-dist/worker.go:72)	MOVQ	AX, "".__temp_0+88(SP)
	0x0320 00800 (/home/vimuth/projects/parallely/diesel/src/bfs-dist/worker.go:73)	MOVQ	"".Q+8(SB), CX
	0x0327 00807 (/home/vimuth/projects/parallely/diesel/src/bfs-dist/worker.go:73)	MOVQ	CX, ""..autotmp_56+104(SP)
	0x032c 00812 (/home/vimuth/projects/parallely/diesel/src/bfs-dist/worker.go:73)	PCDATA	$0, $5
	0x032c 00812 (/home/vimuth/projects/parallely/diesel/src/bfs-dist/worker.go:73)	MOVQ	"".Q(SB), DX
	0x0333 00819 (/home/vimuth/projects/parallely/diesel/src/bfs-dist/worker.go:73)	PCDATA	$1, $1
	0x0333 00819 (/home/vimuth/projects/parallely/diesel/src/bfs-dist/worker.go:73)	MOVQ	DX, ""..autotmp_57+373568(SP)
	0x033b 00827 (/home/vimuth/projects/parallely/diesel/src/bfs-dist/worker.go:73)	XORL	BX, BX
	0x033d 00829 (/home/vimuth/projects/parallely/diesel/src/bfs-dist/worker.go:73)	JMP	518
	0x0342 00834 (/home/vimuth/projects/parallely/diesel/src/bfs-dist/worker.go:97)	PCDATA	$0, $0
	0x0342 00834 (/home/vimuth/projects/parallely/diesel/src/bfs-dist/worker.go:97)	PCDATA	$1, $0
	0x0342 00834 (/home/vimuth/projects/parallely/diesel/src/bfs-dist/worker.go:97)	CALL	dieseldist.EndTiming(SB)
	0x0347 00839 (/home/vimuth/projects/parallely/diesel/src/bfs-dist/worker.go:98)	PCDATA	$0, $2
	0x0347 00839 (/home/vimuth/projects/parallely/diesel/src/bfs-dist/worker.go:98)	LEAQ	"".DistGlobal(SB), DI
	0x034e 00846 (/home/vimuth/projects/parallely/diesel/src/bfs-dist/worker.go:98)	PCDATA	$0, $3
	0x034e 00846 (/home/vimuth/projects/parallely/diesel/src/bfs-dist/worker.go:98)	LEAQ	"".distance+80112(SP), SI
	0x0356 00854 (/home/vimuth/projects/parallely/diesel/src/bfs-dist/worker.go:98)	MOVL	$36682, CX
	0x035b 00859 (/home/vimuth/projects/parallely/diesel/src/bfs-dist/worker.go:98)	PCDATA	$0, $0
	0x035b 00859 (/home/vimuth/projects/parallely/diesel/src/bfs-dist/worker.go:98)	REP
	0x035c 00860 (/home/vimuth/projects/parallely/diesel/src/bfs-dist/worker.go:98)	MOVSQ
	0x035e 00862 (/home/vimuth/projects/parallely/diesel/src/bfs-dist/worker.go:101)	CALL	dieseldist.CleanupMain(SB)
	0x0363 00867 (/home/vimuth/projects/parallely/diesel/src/bfs-dist/worker.go:102)	PCDATA	$1, $2
	0x0363 00867 (/home/vimuth/projects/parallely/diesel/src/bfs-dist/worker.go:102)	XORPS	X0, X0
	0x0366 00870 (/home/vimuth/projects/parallely/diesel/src/bfs-dist/worker.go:102)	MOVUPS	X0, ""..autotmp_48+373576(SP)
	0x036e 00878 (/home/vimuth/projects/parallely/diesel/src/bfs-dist/worker.go:102)	MOVUPS	X0, ""..autotmp_48+373592(SP)
	0x0376 00886 (/home/vimuth/projects/parallely/diesel/src/bfs-dist/worker.go:102)	PCDATA	$0, $1
	0x0376 00886 (/home/vimuth/projects/parallely/diesel/src/bfs-dist/worker.go:102)	LEAQ	type.string(SB), AX
	0x037d 00893 (/home/vimuth/projects/parallely/diesel/src/bfs-dist/worker.go:102)	PCDATA	$0, $0
	0x037d 00893 (/home/vimuth/projects/parallely/diesel/src/bfs-dist/worker.go:102)	MOVQ	AX, ""..autotmp_48+373576(SP)
	0x0385 00901 (/home/vimuth/projects/parallely/diesel/src/bfs-dist/worker.go:102)	PCDATA	$0, $1
	0x0385 00901 (/home/vimuth/projects/parallely/diesel/src/bfs-dist/worker.go:102)	LEAQ	""..stmp_0(SB), AX
	0x038c 00908 (/home/vimuth/projects/parallely/diesel/src/bfs-dist/worker.go:102)	PCDATA	$0, $0
	0x038c 00908 (/home/vimuth/projects/parallely/diesel/src/bfs-dist/worker.go:102)	MOVQ	AX, ""..autotmp_48+373584(SP)
	0x0394 00916 (/home/vimuth/projects/parallely/diesel/src/bfs-dist/worker.go:102)	PCDATA	$0, $1
	0x0394 00916 (/home/vimuth/projects/parallely/diesel/src/bfs-dist/worker.go:102)	LEAQ	type.int(SB), AX
	0x039b 00923 (/home/vimuth/projects/parallely/diesel/src/bfs-dist/worker.go:102)	PCDATA	$0, $0
	0x039b 00923 (/home/vimuth/projects/parallely/diesel/src/bfs-dist/worker.go:102)	MOVQ	AX, ""..autotmp_48+373592(SP)
	0x03a3 00931 (/home/vimuth/projects/parallely/diesel/src/bfs-dist/worker.go:102)	PCDATA	$0, $1
	0x03a3 00931 (/home/vimuth/projects/parallely/diesel/src/bfs-dist/worker.go:102)	LEAQ	""..stmp_1(SB), AX
	0x03aa 00938 (/home/vimuth/projects/parallely/diesel/src/bfs-dist/worker.go:102)	PCDATA	$0, $0
	0x03aa 00938 (/home/vimuth/projects/parallely/diesel/src/bfs-dist/worker.go:102)	MOVQ	AX, ""..autotmp_48+373600(SP)
	0x03b2 00946 (<unknown line number>)	NOP
	0x03b2 00946 ($GOROOT/src/fmt/print.go:274)	PCDATA	$0, $1
	0x03b2 00946 ($GOROOT/src/fmt/print.go:274)	MOVQ	os.Stdout(SB), AX
	0x03b9 00953 ($GOROOT/src/fmt/print.go:274)	PCDATA	$0, $6
	0x03b9 00953 ($GOROOT/src/fmt/print.go:274)	LEAQ	go.itab.*os.File,io.Writer(SB), CX
	0x03c0 00960 ($GOROOT/src/fmt/print.go:274)	PCDATA	$0, $1
	0x03c0 00960 ($GOROOT/src/fmt/print.go:274)	MOVQ	CX, (SP)
	0x03c4 00964 ($GOROOT/src/fmt/print.go:274)	PCDATA	$0, $0
	0x03c4 00964 ($GOROOT/src/fmt/print.go:274)	MOVQ	AX, 8(SP)
	0x03c9 00969 ($GOROOT/src/fmt/print.go:274)	PCDATA	$0, $1
	0x03c9 00969 ($GOROOT/src/fmt/print.go:274)	PCDATA	$1, $0
	0x03c9 00969 ($GOROOT/src/fmt/print.go:274)	LEAQ	""..autotmp_48+373576(SP), AX
	0x03d1 00977 ($GOROOT/src/fmt/print.go:274)	PCDATA	$0, $0
	0x03d1 00977 ($GOROOT/src/fmt/print.go:274)	MOVQ	AX, 16(SP)
	0x03d6 00982 ($GOROOT/src/fmt/print.go:274)	MOVQ	$2, 24(SP)
	0x03df 00991 ($GOROOT/src/fmt/print.go:274)	MOVQ	$2, 32(SP)
	0x03e8 01000 ($GOROOT/src/fmt/print.go:274)	CALL	fmt.Fprintln(SB)
	0x03ed 01005 (/home/vimuth/projects/parallely/diesel/src/bfs-dist/worker.go:102)	MOVQ	373608(SP), BP
	0x03f5 01013 (/home/vimuth/projects/parallely/diesel/src/bfs-dist/worker.go:102)	ADDQ	$373616, SP
	0x03fc 01020 (/home/vimuth/projects/parallely/diesel/src/bfs-dist/worker.go:102)	RET
	0x03fd 01021 (/home/vimuth/projects/parallely/diesel/src/dieseldist/diesel-dist.go:86)	PCDATA	$0, $-2
	0x03fd 01021 (/home/vimuth/projects/parallely/diesel/src/dieseldist/diesel-dist.go:86)	PCDATA	$1, $-2
	0x03fd 01021 (/home/vimuth/projects/parallely/diesel/src/dieseldist/diesel-dist.go:86)	LEAQ	dieseldist.startTime+16(SB), DI
	0x0404 01028 (/home/vimuth/projects/parallely/diesel/src/dieseldist/diesel-dist.go:86)	CALL	runtime.gcWriteBarrier(SB)
	0x0409 01033 (/home/vimuth/projects/parallely/diesel/src/dieseldist/diesel-dist.go:86)	JMP	426
	0x040e 01038 (/home/vimuth/projects/parallely/diesel/src/bfs-dist/worker.go:91)	PCDATA	$0, $0
	0x040e 01038 (/home/vimuth/projects/parallely/diesel/src/bfs-dist/worker.go:91)	PCDATA	$1, $0
	0x040e 01038 (/home/vimuth/projects/parallely/diesel/src/bfs-dist/worker.go:91)	MOVQ	SI, AX
	0x0411 01041 (/home/vimuth/projects/parallely/diesel/src/bfs-dist/worker.go:91)	MOVL	$36682, CX
	0x0416 01046 (/home/vimuth/projects/parallely/diesel/src/bfs-dist/worker.go:91)	CALL	runtime.panicIndex(SB)
	0x041b 01051 (/home/vimuth/projects/parallely/diesel/src/bfs-dist/worker.go:89)	MOVQ	DX, AX
	0x041e 01054 (/home/vimuth/projects/parallely/diesel/src/bfs-dist/worker.go:89)	MOVL	$10000, CX
	0x0423 01059 (/home/vimuth/projects/parallely/diesel/src/bfs-dist/worker.go:89)	CALL	runtime.panicIndex(SB)
	0x0428 01064 (/home/vimuth/projects/parallely/diesel/src/bfs-dist/worker.go:89)	XCHGL	AX, AX
	0x0429 01065 (/home/vimuth/projects/parallely/diesel/src/bfs-dist/worker.go:89)	NOP
	0x0429 01065 (/home/vimuth/projects/parallely/diesel/src/bfs-dist/worker.go:42)	PCDATA	$1, $-1
	0x0429 01065 (/home/vimuth/projects/parallely/diesel/src/bfs-dist/worker.go:42)	PCDATA	$0, $-2
	0x0429 01065 (/home/vimuth/projects/parallely/diesel/src/bfs-dist/worker.go:42)	CALL	runtime.morestack_noctxt(SB)
	0x042e 01070 (/home/vimuth/projects/parallely/diesel/src/bfs-dist/worker.go:42)	PCDATA	$0, $-1
	0x042e 01070 (/home/vimuth/projects/parallely/diesel/src/bfs-dist/worker.go:42)	JMP	0
	0x0000 64 48 8b 0c 25 00 00 00 00 48 8b 71 10 48 81 fe  dH..%....H.q.H..
	0x0010 de fa ff ff 0f 84 0f 04 00 00 48 8d 84 24 80 03  ..........H..$..
	0x0020 00 00 48 29 f0 48 3d 70 b6 05 00 0f 86 f8 03 00  ..H).H=p........
	0x0030 00 48 81 ec 70 b3 05 00 48 89 ac 24 68 b3 05 00  .H..p...H..$h...
	0x0040 48 8d ac 24 68 b3 05 00 48 8b 05 00 00 00 00 48  H..$h...H......H
	0x0050 89 04 24 48 8d 05 00 00 00 00 48 89 44 24 08 48  ..$H......H.D$.H
	0x0060 c7 44 24 10 22 00 00 00 e8 00 00 00 00 48 8b 05  .D$."........H..
	0x0070 00 00 00 00 48 89 04 24 e8 00 00 00 00 48 8d bc  ....H..$.....H..
	0x0080 24 f0 38 01 00 b9 4a 8f 00 00 31 c0 f3 48 ab 48  $.8...J...1..H.H
	0x0090 8d 7c 24 70 b9 10 27 00 00 f3 48 ab 48 8d bc 24  .|$p..'...H.H..$
	0x00a0 f0 38 01 00 48 8d 35 00 00 00 00 b9 4a 8f 00 00  .8..H.5.....J...
	0x00b0 f3 48 a5 48 8b 05 00 00 00 00 48 89 44 24 68 48  .H.H......H.D$hH
	0x00c0 8b 0d 00 00 00 00 48 89 8c 24 40 b3 05 00 31 d2  ......H..$@...1.
	0x00d0 eb 54 48 89 74 24 40 48 89 5c 24 50 48 89 14 24  .TH.t$@H.\$PH..$
	0x00e0 48 c7 44 24 08 00 00 00 00 48 89 74 24 10 e8 00  H.D$.....H.t$...
	0x00f0 00 00 00 48 8b 44 24 50 48 89 04 24 48 c7 44 24  ...H.D$PH..$H.D$
	0x0100 08 00 00 00 00 48 8b 44 24 40 48 89 44 24 10 e8  .....H.D$@H.D$..
	0x0110 00 00 00 00 48 8b 44 24 68 48 8b 8c 24 40 b3 05  ....H.D$hH..$@..
	0x0120 00 48 8b 54 24 60 48 39 c2 7d 4a 48 8b 1d 00 00  .H.T$`H9.}JH....
	0x0130 00 00 48 ff cb 48 39 da 0f 94 c3 48 8b 34 d1 48  ..H..H9....H.4.H
	0x0140 8b 3d 00 00 00 00 49 89 d0 48 0f af d7 49 ff c0  .=....I..H...I..
	0x0150 4c 89 44 24 60 49 0f af f8 0f b6 db 48 85 db 74  L.D$`I......H..t
	0x0160 0c 48 8b 1d 00 00 00 00 e9 65 ff ff ff 48 89 fb  .H.......e...H..
	0x0170 e9 5d ff ff ff e8 00 00 00 00 48 8b 44 24 10 48  .]........H.D$.H
	0x0180 8b 0c 24 48 8b 54 24 08 48 89 0d 00 00 00 00 48  ..$H.T$.H......H
	0x0190 89 15 00 00 00 00 83 3d 00 00 00 00 00 0f 85 5a  .......=.......Z
	0x01a0 02 00 00 48 89 05 00 00 00 00 31 c0 e9 64 01 00  ...H......1..d..
	0x01b0 00 48 89 5c 24 60 48 8b 04 da 48 8d 8c 24 f0 38  .H.\$`H...H..$.8
	0x01c0 01 00 48 89 0c 24 48 c7 44 24 08 4a 8f 00 00 48  ..H..$H.D$.J...H
	0x01d0 c7 44 24 10 4a 8f 00 00 48 c7 44 24 18 00 00 00  .D$.J...H.D$....
	0x01e0 00 48 89 44 24 20 e8 00 00 00 00 48 8b 44 24 60  .H.D$ .....H.D$`
	0x01f0 48 8d 58 01 48 8b 44 24 58 48 8b 4c 24 68 48 8b  H.X.H.D$XH.L$hH.
	0x0200 94 24 40 b3 05 00 48 39 cb 7c a6 48 8b 0d 00 00  .$@...H9.|.H....
	0x0210 00 00 48 89 4c 24 68 48 8b 15 00 00 00 00 48 89  ..H.L$hH......H.
	0x0220 94 24 40 b3 05 00 31 db eb 4f 48 c1 e6 03 48 89  .$@...1..OH...H.
	0x0230 9c 34 f0 38 01 00 48 ff c2 48 39 c2 7d 24 48 81  .4.8..H..H9.}$H.
	0x0240 fa 10 27 00 00 0f 83 d0 01 00 00 48 8b 5c d4 70  ..'........H.\.p
	0x0250 48 8d 34 11 48 81 fe 4a 8f 00 00 72 cd e9 ac 01  H.4.H..J...r....
	0x0260 00 00 48 8b 44 24 58 48 8b 4c 24 68 48 8b 94 24  ..H.D$XH.L$hH..$
	0x0270 40 b3 05 00 48 8b 5c 24 60 48 39 cb 0f 8d 90 00  @...H.\$`H9.....
	0x0280 00 00 48 8b 35 00 00 00 00 48 ff ce 48 39 f3 40  ..H.5....H..H9.@
	0x0290 0f 94 c6 48 8b 3c da 4c 8b 05 00 00 00 00 49 89  ...H.<.L......I.
	0x02a0 d9 49 0f af d8 48 89 5c 24 48 49 ff c1 4c 89 4c  .I...H.\$HI..L.L
	0x02b0 24 60 4d 0f af c1 40 0f b6 f6 48 85 f6 74 4e 48  $`M...@...H..tNH
	0x02c0 8b 35 00 00 00 00 48 89 74 24 50 48 8d 44 24 70  .5....H.t$PH.D$p
	0x02d0 48 89 04 24 48 c7 44 24 08 10 27 00 00 48 c7 44  H..$H.D$..'..H.D
	0x02e0 24 10 10 27 00 00 48 c7 44 24 18 00 00 00 00 48  $..'..H.D$.....H
	0x02f0 89 7c 24 20 e8 00 00 00 00 48 8b 44 24 50 48 8b  .|$ .....H.D$PH.
	0x0300 4c 24 48 48 29 c8 31 d2 e9 2c ff ff ff 4c 89 c6  L$HH).1..,...L..
	0x0310 eb b4 48 ff c0 48 83 f8 0a 7d 27 48 89 44 24 58  ..H..H...}'H.D$X
	0x0320 48 8b 0d 00 00 00 00 48 89 4c 24 68 48 8b 15 00  H......H.L$hH...
	0x0330 00 00 00 48 89 94 24 40 b3 05 00 31 db e9 c4 fe  ...H..$@...1....
	0x0340 ff ff e8 00 00 00 00 48 8d 3d 00 00 00 00 48 8d  .......H.=....H.
	0x0350 b4 24 f0 38 01 00 b9 4a 8f 00 00 f3 48 a5 e8 00  .$.8...J....H...
	0x0360 00 00 00 0f 57 c0 0f 11 84 24 48 b3 05 00 0f 11  ....W....$H.....
	0x0370 84 24 58 b3 05 00 48 8d 05 00 00 00 00 48 89 84  .$X...H......H..
	0x0380 24 48 b3 05 00 48 8d 05 00 00 00 00 48 89 84 24  $H...H......H..$
	0x0390 50 b3 05 00 48 8d 05 00 00 00 00 48 89 84 24 58  P...H......H..$X
	0x03a0 b3 05 00 48 8d 05 00 00 00 00 48 89 84 24 60 b3  ...H......H..$`.
	0x03b0 05 00 48 8b 05 00 00 00 00 48 8d 0d 00 00 00 00  ..H......H......
	0x03c0 48 89 0c 24 48 89 44 24 08 48 8d 84 24 48 b3 05  H..$H.D$.H..$H..
	0x03d0 00 48 89 44 24 10 48 c7 44 24 18 02 00 00 00 48  .H.D$.H.D$.....H
	0x03e0 c7 44 24 20 02 00 00 00 e8 00 00 00 00 48 8b ac  .D$ .........H..
	0x03f0 24 68 b3 05 00 48 81 c4 70 b3 05 00 c3 48 8d 3d  $h...H..p....H.=
	0x0400 00 00 00 00 e8 00 00 00 00 e9 9c fd ff ff 48 89  ..............H.
	0x0410 f0 b9 4a 8f 00 00 e8 00 00 00 00 48 89 d0 b9 10  ..J........H....
	0x0420 27 00 00 e8 00 00 00 00 90 e8 00 00 00 00 e9 cd  '...............
	0x0430 fb ff ff                                         ...
	rel 5+4 t=17 TLS+0
	rel 75+4 t=16 "".Num_threads+0
	rel 86+4 t=16 go.string."amqp://guest:guest@localhost:5672/"+0
	rel 105+4 t=8 dieseldist.InitQueues+0
	rel 112+4 t=16 "".Num_threads+0
	rel 121+4 t=8 dieseldist.WaitForWorkers+0
	rel 167+4 t=16 "".DistGlobal+0
	rel 182+4 t=16 "".Q+8
	rel 194+4 t=16 "".Q+0
	rel 239+4 t=8 dieseldist.SendInt+0
	rel 272+4 t=8 dieseldist.SendInt+0
	rel 302+4 t=16 "".Num_threads+0
	rel 322+4 t=16 "".NodesPerThread+0
	rel 356+4 t=16 "".Num_nodes+0
	rel 374+4 t=8 time.Now+0
	rel 395+4 t=16 dieseldist.startTime+0
	rel 402+4 t=16 dieseldist.startTime+8
	rel 408+4 t=16 runtime.writeBarrier+-1
	rel 422+4 t=16 dieseldist.startTime+16
	rel 487+4 t=8 dieseldist.SendIntArray+0
	rel 526+4 t=16 "".Q+8
	rel 538+4 t=16 "".Q+0
	rel 645+4 t=16 "".Num_threads+0
	rel 666+4 t=16 "".NodesPerThread+0
	rel 706+4 t=16 "".Num_nodes+0
	rel 757+4 t=8 dieseldist.ReceiveIntArray+0
	rel 803+4 t=16 "".Q+8
	rel 815+4 t=16 "".Q+0
	rel 835+4 t=8 dieseldist.EndTiming+0
	rel 842+4 t=16 "".DistGlobal+0
	rel 863+4 t=8 dieseldist.CleanupMain+0
	rel 889+4 t=16 type.string+0
	rel 904+4 t=16 ""..stmp_0+0
	rel 919+4 t=16 type.int+0
	rel 934+4 t=16 ""..stmp_1+0
	rel 949+4 t=16 os.Stdout+0
	rel 956+4 t=16 go.itab.*os.File,io.Writer+0
	rel 1001+4 t=8 fmt.Fprintln+0
	rel 1024+4 t=16 dieseldist.startTime+16
	rel 1029+4 t=8 runtime.gcWriteBarrier+0
	rel 1047+4 t=8 runtime.panicIndex+0
	rel 1060+4 t=8 runtime.panicIndex+0
	rel 1066+4 t=8 runtime.morestack_noctxt+0
type..eq.[2]interface {} STEXT dupok size=179 args=0x18 locals=0x30
	0x0000 00000 (<autogenerated>:1)	TEXT	type..eq.[2]interface {}(SB), DUPOK|ABIInternal, $48-24
	0x0000 00000 (<autogenerated>:1)	MOVQ	(TLS), CX
	0x0009 00009 (<autogenerated>:1)	CMPQ	SP, 16(CX)
	0x000d 00013 (<autogenerated>:1)	PCDATA	$0, $-2
	0x000d 00013 (<autogenerated>:1)	JLS	169
	0x0013 00019 (<autogenerated>:1)	PCDATA	$0, $-1
	0x0013 00019 (<autogenerated>:1)	SUBQ	$48, SP
	0x0017 00023 (<autogenerated>:1)	MOVQ	BP, 40(SP)
	0x001c 00028 (<autogenerated>:1)	LEAQ	40(SP), BP
	0x0021 00033 (<autogenerated>:1)	PCDATA	$0, $-2
	0x0021 00033 (<autogenerated>:1)	PCDATA	$1, $-2
	0x0021 00033 (<autogenerated>:1)	FUNCDATA	$0, gclocals·dc9b0298814590ca3ffc3a889546fc8b(SB)
	0x0021 00033 (<autogenerated>:1)	FUNCDATA	$1, gclocals·69c1753bd5f81501d95132d08af04464(SB)
	0x0021 00033 (<autogenerated>:1)	FUNCDATA	$2, gclocals·313a5bdbfadc4f007c002a3a3588596d(SB)
	0x0021 00033 (<autogenerated>:1)	PCDATA	$0, $1
	0x0021 00033 (<autogenerated>:1)	PCDATA	$1, $0
	0x0021 00033 (<autogenerated>:1)	MOVQ	"".p+56(SP), AX
	0x0026 00038 (<autogenerated>:1)	PCDATA	$0, $2
	0x0026 00038 (<autogenerated>:1)	MOVQ	"".q+64(SP), CX
	0x002b 00043 (<autogenerated>:1)	XORL	DX, DX
	0x002d 00045 (<autogenerated>:1)	JMP	72
	0x002f 00047 (<autogenerated>:1)	PCDATA	$0, $0
	0x002f 00047 (<autogenerated>:1)	MOVQ	""..autotmp_8+32(SP), BX
	0x0034 00052 (<autogenerated>:1)	LEAQ	1(BX), DX
	0x0038 00056 (<autogenerated>:1)	PCDATA	$0, $3
	0x0038 00056 (<autogenerated>:1)	MOVQ	"".p+56(SP), BX
	0x003d 00061 (<autogenerated>:1)	PCDATA	$0, $4
	0x003d 00061 (<autogenerated>:1)	MOVQ	"".q+64(SP), SI
	0x0042 00066 (<autogenerated>:1)	PCDATA	$0, $5
	0x0042 00066 (<autogenerated>:1)	MOVQ	BX, AX
	0x0045 00069 (<autogenerated>:1)	PCDATA	$0, $2
	0x0045 00069 (<autogenerated>:1)	MOVQ	SI, CX
	0x0048 00072 (<autogenerated>:1)	CMPQ	DX, $2
	0x004c 00076 (<autogenerated>:1)	JGE	154
	0x004e 00078 (<autogenerated>:1)	MOVQ	DX, BX
	0x0051 00081 (<autogenerated>:1)	SHLQ	$4, DX
	0x0055 00085 (<autogenerated>:1)	PCDATA	$0, $6
	0x0055 00085 (<autogenerated>:1)	MOVQ	8(DX)(AX*1), SI
	0x005a 00090 (<autogenerated>:1)	PCDATA	$0, $7
	0x005a 00090 (<autogenerated>:1)	MOVQ	(DX)(AX*1), DI
	0x005e 00094 (<autogenerated>:1)	MOVQ	(DX)(CX*1), R8
	0x0062 00098 (<autogenerated>:1)	PCDATA	$0, $8
	0x0062 00098 (<autogenerated>:1)	MOVQ	8(DX)(CX*1), DX
	0x0067 00103 (<autogenerated>:1)	CMPQ	DI, R8
	0x006a 00106 (<autogenerated>:1)	JNE	139
	0x006c 00108 (<autogenerated>:1)	MOVQ	BX, ""..autotmp_8+32(SP)
	0x0071 00113 (<autogenerated>:1)	MOVQ	DI, (SP)
	0x0075 00117 (<autogenerated>:1)	PCDATA	$0, $9
	0x0075 00117 (<autogenerated>:1)	MOVQ	SI, 8(SP)
	0x007a 00122 (<autogenerated>:1)	PCDATA	$0, $0
	0x007a 00122 (<autogenerated>:1)	MOVQ	DX, 16(SP)
	0x007f 00127 (<autogenerated>:1)	CALL	runtime.efaceeq(SB)
	0x0084 00132 (<autogenerated>:1)	CMPB	24(SP), $0
	0x0089 00137 (<autogenerated>:1)	JNE	47
	0x008b 00139 (<autogenerated>:1)	PCDATA	$1, $1
	0x008b 00139 (<autogenerated>:1)	MOVB	$0, "".~r2+72(SP)
	0x0090 00144 (<autogenerated>:1)	MOVQ	40(SP), BP
	0x0095 00149 (<autogenerated>:1)	ADDQ	$48, SP
	0x0099 00153 (<autogenerated>:1)	RET
	0x009a 00154 (<autogenerated>:1)	MOVB	$1, "".~r2+72(SP)
	0x009f 00159 (<autogenerated>:1)	MOVQ	40(SP), BP
	0x00a4 00164 (<autogenerated>:1)	ADDQ	$48, SP
	0x00a8 00168 (<autogenerated>:1)	RET
	0x00a9 00169 (<autogenerated>:1)	NOP
	0x00a9 00169 (<autogenerated>:1)	PCDATA	$1, $-1
	0x00a9 00169 (<autogenerated>:1)	PCDATA	$0, $-2
	0x00a9 00169 (<autogenerated>:1)	CALL	runtime.morestack_noctxt(SB)
	0x00ae 00174 (<autogenerated>:1)	PCDATA	$0, $-1
	0x00ae 00174 (<autogenerated>:1)	JMP	0
	0x0000 64 48 8b 0c 25 00 00 00 00 48 3b 61 10 0f 86 96  dH..%....H;a....
	0x0010 00 00 00 48 83 ec 30 48 89 6c 24 28 48 8d 6c 24  ...H..0H.l$(H.l$
	0x0020 28 48 8b 44 24 38 48 8b 4c 24 40 31 d2 eb 19 48  (H.D$8H.L$@1...H
	0x0030 8b 5c 24 20 48 8d 53 01 48 8b 5c 24 38 48 8b 74  .\$ H.S.H.\$8H.t
	0x0040 24 40 48 89 d8 48 89 f1 48 83 fa 02 7d 4c 48 89  $@H..H..H...}LH.
	0x0050 d3 48 c1 e2 04 48 8b 74 02 08 48 8b 3c 02 4c 8b  .H...H.t..H.<.L.
	0x0060 04 0a 48 8b 54 0a 08 4c 39 c7 75 1f 48 89 5c 24  ..H.T..L9.u.H.\$
	0x0070 20 48 89 3c 24 48 89 74 24 08 48 89 54 24 10 e8   H.<$H.t$.H.T$..
	0x0080 00 00 00 00 80 7c 24 18 00 75 a4 c6 44 24 48 00  .....|$..u..D$H.
	0x0090 48 8b 6c 24 28 48 83 c4 30 c3 c6 44 24 48 01 48  H.l$(H..0..D$H.H
	0x00a0 8b 6c 24 28 48 83 c4 30 c3 e8 00 00 00 00 e9 4d  .l$(H..0.......M
	0x00b0 ff ff ff                                         ...
	rel 5+4 t=17 TLS+0
	rel 128+4 t=8 runtime.efaceeq+0
	rel 170+4 t=8 runtime.morestack_noctxt+0
"".func_Q STEXT size=895 args=0x8 locals=0xa2da8
	0x0000 00000 (/home/vimuth/projects/parallely/diesel/src/bfs-dist/worker.go:104)	TEXT	"".func_Q(SB), ABIInternal, $667048-8
	0x0000 00000 (/home/vimuth/projects/parallely/diesel/src/bfs-dist/worker.go:104)	MOVQ	(TLS), CX
	0x0009 00009 (/home/vimuth/projects/parallely/diesel/src/bfs-dist/worker.go:104)	MOVQ	16(CX), SI
	0x000d 00013 (/home/vimuth/projects/parallely/diesel/src/bfs-dist/worker.go:104)	PCDATA	$0, $-2
	0x000d 00013 (/home/vimuth/projects/parallely/diesel/src/bfs-dist/worker.go:104)	CMPQ	SI, $-1314
	0x0014 00020 (/home/vimuth/projects/parallely/diesel/src/bfs-dist/worker.go:104)	JEQ	885
	0x001a 00026 (/home/vimuth/projects/parallely/diesel/src/bfs-dist/worker.go:104)	LEAQ	896(SP), AX
	0x0022 00034 (/home/vimuth/projects/parallely/diesel/src/bfs-dist/worker.go:104)	SUBQ	SI, AX
	0x0025 00037 (/home/vimuth/projects/parallely/diesel/src/bfs-dist/worker.go:104)	CMPQ	AX, $667816
	0x002b 00043 (/home/vimuth/projects/parallely/diesel/src/bfs-dist/worker.go:104)	JLS	885
	0x0031 00049 (/home/vimuth/projects/parallely/diesel/src/bfs-dist/worker.go:104)	PCDATA	$0, $-1
	0x0031 00049 (/home/vimuth/projects/parallely/diesel/src/bfs-dist/worker.go:104)	SUBQ	$667048, SP
	0x0038 00056 (/home/vimuth/projects/parallely/diesel/src/bfs-dist/worker.go:104)	MOVQ	BP, 667040(SP)
	0x0040 00064 (/home/vimuth/projects/parallely/diesel/src/bfs-dist/worker.go:104)	LEAQ	667040(SP), BP
	0x0048 00072 (/home/vimuth/projects/parallely/diesel/src/bfs-dist/worker.go:104)	PCDATA	$0, $-2
	0x0048 00072 (/home/vimuth/projects/parallely/diesel/src/bfs-dist/worker.go:104)	PCDATA	$1, $-2
	0x0048 00072 (/home/vimuth/projects/parallely/diesel/src/bfs-dist/worker.go:104)	FUNCDATA	$0, gclocals·7d2d5fca80364273fb07d5820a76fef4(SB)
	0x0048 00072 (/home/vimuth/projects/parallely/diesel/src/bfs-dist/worker.go:104)	FUNCDATA	$1, gclocals·80b0d9ad63c242a848af3702a9ec7107(SB)
	0x0048 00072 (/home/vimuth/projects/parallely/diesel/src/bfs-dist/worker.go:104)	FUNCDATA	$2, gclocals·d28d2f92e85a416440263467f2460f98(SB)
	0x0048 00072 (/home/vimuth/projects/parallely/diesel/src/bfs-dist/worker.go:104)	FUNCDATA	$3, "".func_Q.stkobj(SB)
	0x0048 00072 (/home/vimuth/projects/parallely/diesel/src/bfs-dist/worker.go:105)	PCDATA	$0, $0
	0x0048 00072 (/home/vimuth/projects/parallely/diesel/src/bfs-dist/worker.go:105)	PCDATA	$1, $0
	0x0048 00072 (/home/vimuth/projects/parallely/diesel/src/bfs-dist/worker.go:105)	MOVQ	"".Num_threads(SB), AX
	0x004f 00079 (/home/vimuth/projects/parallely/diesel/src/bfs-dist/worker.go:105)	MOVQ	AX, (SP)
	0x0053 00083 (/home/vimuth/projects/parallely/diesel/src/bfs-dist/worker.go:105)	PCDATA	$0, $1
	0x0053 00083 (/home/vimuth/projects/parallely/diesel/src/bfs-dist/worker.go:105)	LEAQ	go.string."amqp://guest:guest@localhost:5672/"(SB), AX
	0x005a 00090 (/home/vimuth/projects/parallely/diesel/src/bfs-dist/worker.go:105)	PCDATA	$0, $0
	0x005a 00090 (/home/vimuth/projects/parallely/diesel/src/bfs-dist/worker.go:105)	MOVQ	AX, 8(SP)
	0x005f 00095 (/home/vimuth/projects/parallely/diesel/src/bfs-dist/worker.go:105)	MOVQ	$34, 16(SP)
	0x0068 00104 (/home/vimuth/projects/parallely/diesel/src/bfs-dist/worker.go:105)	CALL	dieseldist.InitQueues(SB)
	0x006d 00109 (/home/vimuth/projects/parallely/diesel/src/bfs-dist/worker.go:106)	MOVQ	"".tid+667056(SP), AX
	0x0075 00117 (/home/vimuth/projects/parallely/diesel/src/bfs-dist/worker.go:106)	MOVQ	AX, (SP)
	0x0079 00121 (/home/vimuth/projects/parallely/diesel/src/bfs-dist/worker.go:106)	CALL	dieseldist.PingMain(SB)
	0x007e 00126 (/home/vimuth/projects/parallely/diesel/src/bfs-dist/worker.go:112)	PCDATA	$0, $1
	0x007e 00126 (/home/vimuth/projects/parallely/diesel/src/bfs-dist/worker.go:112)	LEAQ	type.[36682000]int(SB), AX
	0x0085 00133 (/home/vimuth/projects/parallely/diesel/src/bfs-dist/worker.go:112)	PCDATA	$0, $0
	0x0085 00133 (/home/vimuth/projects/parallely/diesel/src/bfs-dist/worker.go:112)	MOVQ	AX, (SP)
	0x0089 00137 (/home/vimuth/projects/parallely/diesel/src/bfs-dist/worker.go:112)	CALL	runtime.newobject(SB)
	0x008e 00142 (/home/vimuth/projects/parallely/diesel/src/bfs-dist/worker.go:112)	PCDATA	$0, $1
	0x008e 00142 (/home/vimuth/projects/parallely/diesel/src/bfs-dist/worker.go:112)	MOVQ	8(SP), AX
	0x0093 00147 (/home/vimuth/projects/parallely/diesel/src/bfs-dist/worker.go:112)	PCDATA	$0, $0
	0x0093 00147 (/home/vimuth/projects/parallely/diesel/src/bfs-dist/worker.go:112)	PCDATA	$1, $1
	0x0093 00147 (/home/vimuth/projects/parallely/diesel/src/bfs-dist/worker.go:112)	MOVQ	AX, "".&edges+667000(SP)
	0x009b 00155 (/home/vimuth/projects/parallely/diesel/src/bfs-dist/worker.go:113)	PCDATA	$0, $2
	0x009b 00155 (/home/vimuth/projects/parallely/diesel/src/bfs-dist/worker.go:113)	LEAQ	"".inlinks+80088(SP), DI
	0x00a3 00163 (/home/vimuth/projects/parallely/diesel/src/bfs-dist/worker.go:113)	MOVL	$36682, CX
	0x00a8 00168 (/home/vimuth/projects/parallely/diesel/src/bfs-dist/worker.go:113)	XORL	AX, AX
	0x00aa 00170 (/home/vimuth/projects/parallely/diesel/src/bfs-dist/worker.go:113)	PCDATA	$0, $0
	0x00aa 00170 (/home/vimuth/projects/parallely/diesel/src/bfs-dist/worker.go:113)	REP
	0x00ab 00171 (/home/vimuth/projects/parallely/diesel/src/bfs-dist/worker.go:113)	STOSQ
	0x00ad 00173 (/home/vimuth/projects/parallely/diesel/src/bfs-dist/worker.go:114)	PCDATA	$0, $2
	0x00ad 00173 (/home/vimuth/projects/parallely/diesel/src/bfs-dist/worker.go:114)	LEAQ	"".distances+373544(SP), DI
	0x00b5 00181 (/home/vimuth/projects/parallely/diesel/src/bfs-dist/worker.go:114)	MOVL	$36682, CX
	0x00ba 00186 (/home/vimuth/projects/parallely/diesel/src/bfs-dist/worker.go:114)	PCDATA	$0, $0
	0x00ba 00186 (/home/vimuth/projects/parallely/diesel/src/bfs-dist/worker.go:114)	REP
	0x00bb 00187 (/home/vimuth/projects/parallely/diesel/src/bfs-dist/worker.go:114)	STOSQ
	0x00bd 00189 (/home/vimuth/projects/parallely/diesel/src/bfs-dist/worker.go:116)	PCDATA	$0, $2
	0x00bd 00189 (/home/vimuth/projects/parallely/diesel/src/bfs-dist/worker.go:116)	LEAQ	"".newDistance+88(SP), DI
	0x00c2 00194 (/home/vimuth/projects/parallely/diesel/src/bfs-dist/worker.go:116)	MOVL	$10000, CX
	0x00c7 00199 (/home/vimuth/projects/parallely/diesel/src/bfs-dist/worker.go:116)	PCDATA	$0, $0
	0x00c7 00199 (/home/vimuth/projects/parallely/diesel/src/bfs-dist/worker.go:116)	REP
	0x00c8 00200 (/home/vimuth/projects/parallely/diesel/src/bfs-dist/worker.go:116)	STOSQ
	0x00ca 00202 (/home/vimuth/projects/parallely/diesel/src/bfs-dist/worker.go:122)	MOVQ	$0, "".mystart+64(SP)
	0x00d3 00211 (/home/vimuth/projects/parallely/diesel/src/bfs-dist/worker.go:123)	MOVQ	$0, "".myend+72(SP)
	0x00dc 00220 (/home/vimuth/projects/parallely/diesel/src/bfs-dist/worker.go:129)	PCDATA	$0, $1
	0x00dc 00220 (/home/vimuth/projects/parallely/diesel/src/bfs-dist/worker.go:129)	LEAQ	"".mystart+64(SP), AX
	0x00e1 00225 (/home/vimuth/projects/parallely/diesel/src/bfs-dist/worker.go:129)	PCDATA	$0, $0
	0x00e1 00225 (/home/vimuth/projects/parallely/diesel/src/bfs-dist/worker.go:129)	MOVQ	AX, (SP)
	0x00e5 00229 (/home/vimuth/projects/parallely/diesel/src/bfs-dist/worker.go:129)	MOVQ	"".tid+667056(SP), AX
	0x00ed 00237 (/home/vimuth/projects/parallely/diesel/src/bfs-dist/worker.go:129)	MOVQ	AX, 8(SP)
	0x00f2 00242 (/home/vimuth/projects/parallely/diesel/src/bfs-dist/worker.go:129)	MOVQ	$0, 16(SP)
	0x00fb 00251 (/home/vimuth/projects/parallely/diesel/src/bfs-dist/worker.go:129)	CALL	dieseldist.ReceiveInt(SB)
	0x0100 00256 (/home/vimuth/projects/parallely/diesel/src/bfs-dist/worker.go:130)	PCDATA	$0, $1
	0x0100 00256 (/home/vimuth/projects/parallely/diesel/src/bfs-dist/worker.go:130)	LEAQ	"".myend+72(SP), AX
	0x0105 00261 (/home/vimuth/projects/parallely/diesel/src/bfs-dist/worker.go:130)	PCDATA	$0, $0
	0x0105 00261 (/home/vimuth/projects/parallely/diesel/src/bfs-dist/worker.go:130)	MOVQ	AX, (SP)
	0x0109 00265 (/home/vimuth/projects/parallely/diesel/src/bfs-dist/worker.go:130)	MOVQ	"".tid+667056(SP), AX
	0x0111 00273 (/home/vimuth/projects/parallely/diesel/src/bfs-dist/worker.go:130)	MOVQ	AX, 8(SP)
	0x0116 00278 (/home/vimuth/projects/parallely/diesel/src/bfs-dist/worker.go:130)	MOVQ	$0, 16(SP)
	0x011f 00287 (/home/vimuth/projects/parallely/diesel/src/bfs-dist/worker.go:130)	CALL	dieseldist.ReceiveInt(SB)
	0x0124 00292 (/home/vimuth/projects/parallely/diesel/src/bfs-dist/worker.go:131)	PCDATA	$0, $2
	0x0124 00292 (/home/vimuth/projects/parallely/diesel/src/bfs-dist/worker.go:131)	MOVQ	"".&edges+667000(SP), DI
	0x012c 00300 (/home/vimuth/projects/parallely/diesel/src/bfs-dist/worker.go:131)	PCDATA	$0, $3
	0x012c 00300 (/home/vimuth/projects/parallely/diesel/src/bfs-dist/worker.go:131)	LEAQ	"".Edges(SB), SI
	0x0133 00307 (/home/vimuth/projects/parallely/diesel/src/bfs-dist/worker.go:131)	MOVL	$36682000, CX
	0x0138 00312 (/home/vimuth/projects/parallely/diesel/src/bfs-dist/worker.go:131)	PCDATA	$0, $0
	0x0138 00312 (/home/vimuth/projects/parallely/diesel/src/bfs-dist/worker.go:131)	REP
	0x0139 00313 (/home/vimuth/projects/parallely/diesel/src/bfs-dist/worker.go:131)	MOVSQ
	0x013b 00315 (/home/vimuth/projects/parallely/diesel/src/bfs-dist/worker.go:132)	PCDATA	$0, $2
	0x013b 00315 (/home/vimuth/projects/parallely/diesel/src/bfs-dist/worker.go:132)	LEAQ	"".inlinks+80088(SP), DI
	0x0143 00323 (/home/vimuth/projects/parallely/diesel/src/bfs-dist/worker.go:132)	PCDATA	$0, $3
	0x0143 00323 (/home/vimuth/projects/parallely/diesel/src/bfs-dist/worker.go:132)	LEAQ	"".Inlinks(SB), SI
	0x014a 00330 (/home/vimuth/projects/parallely/diesel/src/bfs-dist/worker.go:132)	MOVL	$36682, CX
	0x014f 00335 (/home/vimuth/projects/parallely/diesel/src/bfs-dist/worker.go:132)	PCDATA	$0, $0
	0x014f 00335 (/home/vimuth/projects/parallely/diesel/src/bfs-dist/worker.go:132)	REP
	0x0150 00336 (/home/vimuth/projects/parallely/diesel/src/bfs-dist/worker.go:132)	MOVSQ
	0x0152 00338 (/home/vimuth/projects/parallely/diesel/src/bfs-dist/worker.go:132)	XORL	AX, AX
	0x0154 00340 (/home/vimuth/projects/parallely/diesel/src/bfs-dist/worker.go:133)	JMP	570
	0x0159 00345 (/home/vimuth/projects/parallely/diesel/src/bfs-dist/worker.go:148)	PCDATA	$0, $4
	0x0159 00345 (/home/vimuth/projects/parallely/diesel/src/bfs-dist/worker.go:148)	MOVQ	"".distances+373544(SP)(DI*8), R9
	0x0161 00353 (/home/vimuth/projects/parallely/diesel/src/bfs-dist/worker.go:149)	CMPQ	R9, $1
	0x0165 00357 (/home/vimuth/projects/parallely/diesel/src/bfs-dist/worker.go:149)	SETEQ	R9B
	0x0169 00361 (/home/vimuth/projects/parallely/diesel/src/bfs-dist/worker.go:149)	MOVBLZX	R9B, R9
	0x016d 00365 (/home/vimuth/projects/parallely/diesel/src/bfs-dist/worker.go:152)	TESTQ	R9, R9
	0x0170 00368 (/home/vimuth/projects/parallely/diesel/src/bfs-dist/worker.go:155)	MOVL	$2, DI
	0x0175 00373 (/home/vimuth/projects/parallely/diesel/src/bfs-dist/worker.go:155)	MOVL	$1, R9
	0x017b 00379 (/home/vimuth/projects/parallely/diesel/src/bfs-dist/worker.go:155)	CMOVQNE	R9, DI
	0x017f 00383 (/home/vimuth/projects/parallely/diesel/src/bfs-dist/worker.go:153)	INCQ	R8
	0x0182 00386 (/home/vimuth/projects/parallely/diesel/src/bfs-dist/worker.go:144)	CMPQ	R8, SI
	0x0185 00389 (/home/vimuth/projects/parallely/diesel/src/bfs-dist/worker.go:144)	JGE	432
	0x0187 00391 (/home/vimuth/projects/parallely/diesel/src/bfs-dist/worker.go:145)	IMUL3Q	$1000, BX, DI
	0x018e 00398 (/home/vimuth/projects/parallely/diesel/src/bfs-dist/worker.go:145)	ADDQ	R8, DI
	0x0191 00401 (/home/vimuth/projects/parallely/diesel/src/bfs-dist/worker.go:146)	CMPQ	DI, $36682000
	0x0198 00408 (/home/vimuth/projects/parallely/diesel/src/bfs-dist/worker.go:146)	JCC	858
	0x019e 00414 (/home/vimuth/projects/parallely/diesel/src/bfs-dist/worker.go:146)	MOVQ	(CX)(DI*8), DI
	0x01a2 00418 (/home/vimuth/projects/parallely/diesel/src/bfs-dist/worker.go:148)	CMPQ	DI, $36682
	0x01a9 00425 (/home/vimuth/projects/parallely/diesel/src/bfs-dist/worker.go:148)	JCS	345
	0x01ab 00427 (/home/vimuth/projects/parallely/diesel/src/bfs-dist/worker.go:148)	JMP	845
	0x01b0 00432 (/home/vimuth/projects/parallely/diesel/src/bfs-dist/worker.go:157)	CMPQ	DX, $10000
	0x01b7 00439 (/home/vimuth/projects/parallely/diesel/src/bfs-dist/worker.go:157)	JCC	832
	0x01bd 00445 (/home/vimuth/projects/parallely/diesel/src/bfs-dist/worker.go:157)	MOVQ	DX, BX
	0x01c0 00448 (/home/vimuth/projects/parallely/diesel/src/bfs-dist/worker.go:157)	SHLQ	$3, DX
	0x01c4 00452 (/home/vimuth/projects/parallely/diesel/src/bfs-dist/worker.go:157)	MOVQ	DI, "".newDistance+88(SP)(DX*1)
	0x01c9 00457 (/home/vimuth/projects/parallely/diesel/src/bfs-dist/worker.go:158)	LEAQ	1(BX), DX
	0x01cd 00461 (/home/vimuth/projects/parallely/diesel/src/bfs-dist/worker.go:137)	CMPQ	DX, AX
	0x01d0 00464 (/home/vimuth/projects/parallely/diesel/src/bfs-dist/worker.go:137)	JGE	508
	0x01d2 00466 (/home/vimuth/projects/parallely/diesel/src/bfs-dist/worker.go:138)	MOVQ	"".mystart+64(SP), BX
	0x01d7 00471 (/home/vimuth/projects/parallely/diesel/src/bfs-dist/worker.go:138)	ADDQ	DX, BX
	0x01da 00474 (/home/vimuth/projects/parallely/diesel/src/bfs-dist/worker.go:140)	CMPQ	BX, $36682
	0x01e1 00481 (/home/vimuth/projects/parallely/diesel/src/bfs-dist/worker.go:140)	JCC	871
	0x01e7 00487 (/home/vimuth/projects/parallely/diesel/src/bfs-dist/worker.go:140)	MOVQ	"".inlinks+80088(SP)(BX*8), SI
	0x01ef 00495 (/home/vimuth/projects/parallely/diesel/src/bfs-dist/worker.go:142)	MOVQ	"".distances+373544(SP)(BX*8), DI
	0x01f7 00503 (/home/vimuth/projects/parallely/diesel/src/bfs-dist/worker.go:142)	XORL	R8, R8
	0x01fa 00506 (/home/vimuth/projects/parallely/diesel/src/bfs-dist/worker.go:144)	JMP	386
	0x01fc 00508 (/home/vimuth/projects/parallely/diesel/src/bfs-dist/worker.go:160)	PCDATA	$0, $1
	0x01fc 00508 (/home/vimuth/projects/parallely/diesel/src/bfs-dist/worker.go:160)	LEAQ	"".newDistance+88(SP), AX
	0x0201 00513 (/home/vimuth/projects/parallely/diesel/src/bfs-dist/worker.go:160)	PCDATA	$0, $0
	0x0201 00513 (/home/vimuth/projects/parallely/diesel/src/bfs-dist/worker.go:160)	MOVQ	AX, (SP)
	0x0205 00517 (/home/vimuth/projects/parallely/diesel/src/bfs-dist/worker.go:160)	MOVQ	$10000, 8(SP)
	0x020e 00526 (/home/vimuth/projects/parallely/diesel/src/bfs-dist/worker.go:160)	MOVQ	$10000, 16(SP)
	0x0217 00535 (/home/vimuth/projects/parallely/diesel/src/bfs-dist/worker.go:160)	MOVQ	"".tid+667056(SP), CX
	0x021f 00543 (/home/vimuth/projects/parallely/diesel/src/bfs-dist/worker.go:160)	MOVQ	CX, 24(SP)
	0x0224 00548 (/home/vimuth/projects/parallely/diesel/src/bfs-dist/worker.go:160)	MOVQ	$0, 32(SP)
	0x022d 00557 (/home/vimuth/projects/parallely/diesel/src/bfs-dist/worker.go:160)	CALL	dieseldist.SendIntArray(SB)
	0x0232 00562 (/home/vimuth/projects/parallely/diesel/src/bfs-dist/worker.go:133)	MOVQ	"".__temp_2+80(SP), AX
	0x0237 00567 (/home/vimuth/projects/parallely/diesel/src/bfs-dist/worker.go:133)	INCQ	AX
	0x023a 00570 (/home/vimuth/projects/parallely/diesel/src/bfs-dist/worker.go:133)	CMPQ	AX, $10
	0x023e 00574 (/home/vimuth/projects/parallely/diesel/src/bfs-dist/worker.go:133)	JGE	663
	0x0240 00576 (/home/vimuth/projects/parallely/diesel/src/bfs-dist/worker.go:133)	MOVQ	AX, "".__temp_2+80(SP)
	0x0245 00581 (/home/vimuth/projects/parallely/diesel/src/bfs-dist/worker.go:134)	PCDATA	$0, $1
	0x0245 00581 (/home/vimuth/projects/parallely/diesel/src/bfs-dist/worker.go:134)	LEAQ	"".distances+373544(SP), AX
	0x024d 00589 (/home/vimuth/projects/parallely/diesel/src/bfs-dist/worker.go:134)	PCDATA	$0, $0
	0x024d 00589 (/home/vimuth/projects/parallely/diesel/src/bfs-dist/worker.go:134)	MOVQ	AX, (SP)
	0x0251 00593 (/home/vimuth/projects/parallely/diesel/src/bfs-dist/worker.go:134)	MOVQ	$36682, 8(SP)
	0x025a 00602 (/home/vimuth/projects/parallely/diesel/src/bfs-dist/worker.go:134)	MOVQ	$36682, 16(SP)
	0x0263 00611 (/home/vimuth/projects/parallely/diesel/src/bfs-dist/worker.go:134)	MOVQ	"".tid+667056(SP), CX
	0x026b 00619 (/home/vimuth/projects/parallely/diesel/src/bfs-dist/worker.go:134)	MOVQ	CX, 24(SP)
	0x0270 00624 (/home/vimuth/projects/parallely/diesel/src/bfs-dist/worker.go:134)	MOVQ	$0, 32(SP)
	0x0279 00633 (/home/vimuth/projects/parallely/diesel/src/bfs-dist/worker.go:134)	CALL	dieseldist.ReceiveIntArray(SB)
	0x027e 00638 (/home/vimuth/projects/parallely/diesel/src/bfs-dist/worker.go:135)	MOVQ	"".myend+72(SP), AX
	0x0283 00643 (/home/vimuth/projects/parallely/diesel/src/bfs-dist/worker.go:135)	SUBQ	"".mystart+64(SP), AX
	0x0288 00648 (/home/vimuth/projects/parallely/diesel/src/bfs-dist/worker.go:137)	PCDATA	$0, $4
	0x0288 00648 (/home/vimuth/projects/parallely/diesel/src/bfs-dist/worker.go:137)	MOVQ	"".&edges+667000(SP), CX
	0x0290 00656 (/home/vimuth/projects/parallely/diesel/src/bfs-dist/worker.go:137)	XORL	DX, DX
	0x0292 00658 (/home/vimuth/projects/parallely/diesel/src/bfs-dist/worker.go:137)	JMP	461
	0x0297 00663 (/home/vimuth/projects/parallely/diesel/src/bfs-dist/worker.go:163)	PCDATA	$0, $0
	0x0297 00663 (/home/vimuth/projects/parallely/diesel/src/bfs-dist/worker.go:163)	PCDATA	$1, $0
	0x0297 00663 (/home/vimuth/projects/parallely/diesel/src/bfs-dist/worker.go:163)	MOVQ	"".tid+667056(SP), AX
	0x029f 00671 (/home/vimuth/projects/parallely/diesel/src/bfs-dist/worker.go:163)	MOVQ	AX, (SP)
	0x02a3 00675 (/home/vimuth/projects/parallely/diesel/src/bfs-dist/worker.go:163)	CALL	runtime.convT64(SB)
	0x02a8 00680 (/home/vimuth/projects/parallely/diesel/src/bfs-dist/worker.go:163)	PCDATA	$0, $1
	0x02a8 00680 (/home/vimuth/projects/parallely/diesel/src/bfs-dist/worker.go:163)	MOVQ	8(SP), AX
	0x02ad 00685 (/home/vimuth/projects/parallely/diesel/src/bfs-dist/worker.go:163)	PCDATA	$1, $2
	0x02ad 00685 (/home/vimuth/projects/parallely/diesel/src/bfs-dist/worker.go:163)	XORPS	X0, X0
	0x02b0 00688 (/home/vimuth/projects/parallely/diesel/src/bfs-dist/worker.go:163)	MOVUPS	X0, ""..autotmp_49+667008(SP)
	0x02b8 00696 (/home/vimuth/projects/parallely/diesel/src/bfs-dist/worker.go:163)	MOVUPS	X0, ""..autotmp_49+667024(SP)
	0x02c0 00704 (/home/vimuth/projects/parallely/diesel/src/bfs-dist/worker.go:163)	PCDATA	$0, $5
	0x02c0 00704 (/home/vimuth/projects/parallely/diesel/src/bfs-dist/worker.go:163)	LEAQ	type.string(SB), CX
	0x02c7 00711 (/home/vimuth/projects/parallely/diesel/src/bfs-dist/worker.go:163)	PCDATA	$0, $1
	0x02c7 00711 (/home/vimuth/projects/parallely/diesel/src/bfs-dist/worker.go:163)	MOVQ	CX, ""..autotmp_49+667008(SP)
	0x02cf 00719 (/home/vimuth/projects/parallely/diesel/src/bfs-dist/worker.go:163)	PCDATA	$0, $5
	0x02cf 00719 (/home/vimuth/projects/parallely/diesel/src/bfs-dist/worker.go:163)	LEAQ	""..stmp_2(SB), CX
	0x02d6 00726 (/home/vimuth/projects/parallely/diesel/src/bfs-dist/worker.go:163)	PCDATA	$0, $1
	0x02d6 00726 (/home/vimuth/projects/parallely/diesel/src/bfs-dist/worker.go:163)	MOVQ	CX, ""..autotmp_49+667016(SP)
	0x02de 00734 (/home/vimuth/projects/parallely/diesel/src/bfs-dist/worker.go:163)	PCDATA	$0, $5
	0x02de 00734 (/home/vimuth/projects/parallely/diesel/src/bfs-dist/worker.go:163)	LEAQ	type.int(SB), CX
	0x02e5 00741 (/home/vimuth/projects/parallely/diesel/src/bfs-dist/worker.go:163)	PCDATA	$0, $1
	0x02e5 00741 (/home/vimuth/projects/parallely/diesel/src/bfs-dist/worker.go:163)	MOVQ	CX, ""..autotmp_49+667024(SP)
	0x02ed 00749 (/home/vimuth/projects/parallely/diesel/src/bfs-dist/worker.go:163)	PCDATA	$0, $0
	0x02ed 00749 (/home/vimuth/projects/parallely/diesel/src/bfs-dist/worker.go:163)	MOVQ	AX, ""..autotmp_49+667032(SP)
	0x02f5 00757 (<unknown line number>)	NOP
	0x02f5 00757 ($GOROOT/src/fmt/print.go:274)	PCDATA	$0, $1
	0x02f5 00757 ($GOROOT/src/fmt/print.go:274)	MOVQ	os.Stdout(SB), AX
	0x02fc 00764 ($GOROOT/src/fmt/print.go:274)	PCDATA	$0, $5
	0x02fc 00764 ($GOROOT/src/fmt/print.go:274)	LEAQ	go.itab.*os.File,io.Writer(SB), CX
	0x0303 00771 ($GOROOT/src/fmt/print.go:274)	PCDATA	$0, $1
	0x0303 00771 ($GOROOT/src/fmt/print.go:274)	MOVQ	CX, (SP)
	0x0307 00775 ($GOROOT/src/fmt/print.go:274)	PCDATA	$0, $0
	0x0307 00775 ($GOROOT/src/fmt/print.go:274)	MOVQ	AX, 8(SP)
	0x030c 00780 ($GOROOT/src/fmt/print.go:274)	PCDATA	$0, $1
	0x030c 00780 ($GOROOT/src/fmt/print.go:274)	PCDATA	$1, $0
	0x030c 00780 ($GOROOT/src/fmt/print.go:274)	LEAQ	""..autotmp_49+667008(SP), AX
	0x0314 00788 ($GOROOT/src/fmt/print.go:274)	PCDATA	$0, $0
	0x0314 00788 ($GOROOT/src/fmt/print.go:274)	MOVQ	AX, 16(SP)
	0x0319 00793 ($GOROOT/src/fmt/print.go:274)	MOVQ	$2, 24(SP)
	0x0322 00802 ($GOROOT/src/fmt/print.go:274)	MOVQ	$2, 32(SP)
	0x032b 00811 ($GOROOT/src/fmt/print.go:274)	CALL	fmt.Fprintln(SB)
	0x0330 00816 (/home/vimuth/projects/parallely/diesel/src/bfs-dist/worker.go:163)	MOVQ	667040(SP), BP
	0x0338 00824 (/home/vimuth/projects/parallely/diesel/src/bfs-dist/worker.go:163)	ADDQ	$667048, SP
	0x033f 00831 (/home/vimuth/projects/parallely/diesel/src/bfs-dist/worker.go:163)	RET
	0x0340 00832 (/home/vimuth/projects/parallely/diesel/src/bfs-dist/worker.go:157)	MOVQ	DX, AX
	0x0343 00835 (/home/vimuth/projects/parallely/diesel/src/bfs-dist/worker.go:157)	MOVL	$10000, CX
	0x0348 00840 (/home/vimuth/projects/parallely/diesel/src/bfs-dist/worker.go:157)	CALL	runtime.panicIndex(SB)
	0x034d 00845 (/home/vimuth/projects/parallely/diesel/src/bfs-dist/worker.go:148)	MOVQ	DI, AX
	0x0350 00848 (/home/vimuth/projects/parallely/diesel/src/bfs-dist/worker.go:148)	MOVL	$36682, CX
	0x0355 00853 (/home/vimuth/projects/parallely/diesel/src/bfs-dist/worker.go:148)	CALL	runtime.panicIndex(SB)
	0x035a 00858 (/home/vimuth/projects/parallely/diesel/src/bfs-dist/worker.go:146)	MOVQ	DI, AX
	0x035d 00861 (/home/vimuth/projects/parallely/diesel/src/bfs-dist/worker.go:146)	MOVL	$36682000, CX
	0x0362 00866 (/home/vimuth/projects/parallely/diesel/src/bfs-dist/worker.go:146)	CALL	runtime.panicIndex(SB)
	0x0367 00871 (/home/vimuth/projects/parallely/diesel/src/bfs-dist/worker.go:140)	MOVQ	BX, AX
	0x036a 00874 (/home/vimuth/projects/parallely/diesel/src/bfs-dist/worker.go:140)	MOVL	$36682, CX
	0x036f 00879 (/home/vimuth/projects/parallely/diesel/src/bfs-dist/worker.go:140)	CALL	runtime.panicIndex(SB)
	0x0374 00884 (/home/vimuth/projects/parallely/diesel/src/bfs-dist/worker.go:140)	XCHGL	AX, AX
	0x0375 00885 (/home/vimuth/projects/parallely/diesel/src/bfs-dist/worker.go:140)	NOP
	0x0375 00885 (/home/vimuth/projects/parallely/diesel/src/bfs-dist/worker.go:104)	PCDATA	$1, $-1
	0x0375 00885 (/home/vimuth/projects/parallely/diesel/src/bfs-dist/worker.go:104)	PCDATA	$0, $-2
	0x0375 00885 (/home/vimuth/projects/parallely/diesel/src/bfs-dist/worker.go:104)	CALL	runtime.morestack_noctxt(SB)
	0x037a 00890 (/home/vimuth/projects/parallely/diesel/src/bfs-dist/worker.go:104)	PCDATA	$0, $-1
	0x037a 00890 (/home/vimuth/projects/parallely/diesel/src/bfs-dist/worker.go:104)	JMP	0
	0x0000 64 48 8b 0c 25 00 00 00 00 48 8b 71 10 48 81 fe  dH..%....H.q.H..
	0x0010 de fa ff ff 0f 84 5b 03 00 00 48 8d 84 24 80 03  ......[...H..$..
	0x0020 00 00 48 29 f0 48 3d a8 30 0a 00 0f 86 44 03 00  ..H).H=.0....D..
	0x0030 00 48 81 ec a8 2d 0a 00 48 89 ac 24 a0 2d 0a 00  .H...-..H..$.-..
	0x0040 48 8d ac 24 a0 2d 0a 00 48 8b 05 00 00 00 00 48  H..$.-..H......H
	0x0050 89 04 24 48 8d 05 00 00 00 00 48 89 44 24 08 48  ..$H......H.D$.H
	0x0060 c7 44 24 10 22 00 00 00 e8 00 00 00 00 48 8b 84  .D$."........H..
	0x0070 24 b0 2d 0a 00 48 89 04 24 e8 00 00 00 00 48 8d  $.-..H..$.....H.
	0x0080 05 00 00 00 00 48 89 04 24 e8 00 00 00 00 48 8b  .....H..$.....H.
	0x0090 44 24 08 48 89 84 24 78 2d 0a 00 48 8d bc 24 d8  D$.H..$x-..H..$.
	0x00a0 38 01 00 b9 4a 8f 00 00 31 c0 f3 48 ab 48 8d bc  8...J...1..H.H..
	0x00b0 24 28 b3 05 00 b9 4a 8f 00 00 f3 48 ab 48 8d 7c  $(....J....H.H.|
	0x00c0 24 58 b9 10 27 00 00 f3 48 ab 48 c7 44 24 40 00  $X..'...H.H.D$@.
	0x00d0 00 00 00 48 c7 44 24 48 00 00 00 00 48 8d 44 24  ...H.D$H....H.D$
	0x00e0 40 48 89 04 24 48 8b 84 24 b0 2d 0a 00 48 89 44  @H..$H..$.-..H.D
	0x00f0 24 08 48 c7 44 24 10 00 00 00 00 e8 00 00 00 00  $.H.D$..........
	0x0100 48 8d 44 24 48 48 89 04 24 48 8b 84 24 b0 2d 0a  H.D$HH..$H..$.-.
	0x0110 00 48 89 44 24 08 48 c7 44 24 10 00 00 00 00 e8  .H.D$.H.D$......
	0x0120 00 00 00 00 48 8b bc 24 78 2d 0a 00 48 8d 35 00  ....H..$x-..H.5.
	0x0130 00 00 00 b9 10 b9 2f 02 f3 48 a5 48 8d bc 24 d8  ....../..H.H..$.
	0x0140 38 01 00 48 8d 35 00 00 00 00 b9 4a 8f 00 00 f3  8..H.5.....J....
	0x0150 48 a5 31 c0 e9 e1 00 00 00 4c 8b 8c fc 28 b3 05  H.1......L...(..
	0x0160 00 49 83 f9 01 41 0f 94 c1 45 0f b6 c9 4d 85 c9  .I...A...E...M..
	0x0170 bf 02 00 00 00 41 b9 01 00 00 00 49 0f 45 f9 49  .....A.....I.E.I
	0x0180 ff c0 49 39 f0 7d 29 48 69 fb e8 03 00 00 4c 01  ..I9.})Hi.....L.
	0x0190 c7 48 81 ff 10 b9 2f 02 0f 83 bc 01 00 00 48 8b  .H..../.......H.
	0x01a0 3c f9 48 81 ff 4a 8f 00 00 72 ae e9 9d 01 00 00  <.H..J...r......
	0x01b0 48 81 fa 10 27 00 00 0f 83 83 01 00 00 48 89 d3  H...'........H..
	0x01c0 48 c1 e2 03 48 89 7c 14 58 48 8d 53 01 48 39 c2  H...H.|.XH.S.H9.
	0x01d0 7d 2a 48 8b 5c 24 40 48 01 d3 48 81 fb 4a 8f 00  }*H.\$@H..H..J..
	0x01e0 00 0f 83 80 01 00 00 48 8b b4 dc d8 38 01 00 48  .......H....8..H
	0x01f0 8b bc dc 28 b3 05 00 45 31 c0 eb 86 48 8d 44 24  ...(...E1...H.D$
	0x0200 58 48 89 04 24 48 c7 44 24 08 10 27 00 00 48 c7  XH..$H.D$..'..H.
	0x0210 44 24 10 10 27 00 00 48 8b 8c 24 b0 2d 0a 00 48  D$..'..H..$.-..H
	0x0220 89 4c 24 18 48 c7 44 24 20 00 00 00 00 e8 00 00  .L$.H.D$ .......
	0x0230 00 00 48 8b 44 24 50 48 ff c0 48 83 f8 0a 7d 57  ..H.D$PH..H...}W
	0x0240 48 89 44 24 50 48 8d 84 24 28 b3 05 00 48 89 04  H.D$PH..$(...H..
	0x0250 24 48 c7 44 24 08 4a 8f 00 00 48 c7 44 24 10 4a  $H.D$.J...H.D$.J
	0x0260 8f 00 00 48 8b 8c 24 b0 2d 0a 00 48 89 4c 24 18  ...H..$.-..H.L$.
	0x0270 48 c7 44 24 20 00 00 00 00 e8 00 00 00 00 48 8b  H.D$ .........H.
	0x0280 44 24 48 48 2b 44 24 40 48 8b 8c 24 78 2d 0a 00  D$HH+D$@H..$x-..
	0x0290 31 d2 e9 36 ff ff ff 48 8b 84 24 b0 2d 0a 00 48  1..6...H..$.-..H
	0x02a0 89 04 24 e8 00 00 00 00 48 8b 44 24 08 0f 57 c0  ..$.....H.D$..W.
	0x02b0 0f 11 84 24 80 2d 0a 00 0f 11 84 24 90 2d 0a 00  ...$.-.....$.-..
	0x02c0 48 8d 0d 00 00 00 00 48 89 8c 24 80 2d 0a 00 48  H......H..$.-..H
	0x02d0 8d 0d 00 00 00 00 48 89 8c 24 88 2d 0a 00 48 8d  ......H..$.-..H.
	0x02e0 0d 00 00 00 00 48 89 8c 24 90 2d 0a 00 48 89 84  .....H..$.-..H..
	0x02f0 24 98 2d 0a 00 48 8b 05 00 00 00 00 48 8d 0d 00  $.-..H......H...
	0x0300 00 00 00 48 89 0c 24 48 89 44 24 08 48 8d 84 24  ...H..$H.D$.H..$
	0x0310 80 2d 0a 00 48 89 44 24 10 48 c7 44 24 18 02 00  .-..H.D$.H.D$...
	0x0320 00 00 48 c7 44 24 20 02 00 00 00 e8 00 00 00 00  ..H.D$ .........
	0x0330 48 8b ac 24 a0 2d 0a 00 48 81 c4 a8 2d 0a 00 c3  H..$.-..H...-...
	0x0340 48 89 d0 b9 10 27 00 00 e8 00 00 00 00 48 89 f8  H....'.......H..
	0x0350 b9 4a 8f 00 00 e8 00 00 00 00 48 89 f8 b9 10 b9  .J........H.....
	0x0360 2f 02 e8 00 00 00 00 48 89 d8 b9 4a 8f 00 00 e8  /......H...J....
	0x0370 00 00 00 00 90 e8 00 00 00 00 e9 81 fc ff ff     ...............
	rel 5+4 t=17 TLS+0
	rel 75+4 t=16 "".Num_threads+0
	rel 86+4 t=16 go.string."amqp://guest:guest@localhost:5672/"+0
	rel 105+4 t=8 dieseldist.InitQueues+0
	rel 122+4 t=8 dieseldist.PingMain+0
	rel 129+4 t=16 type.[36682000]int+0
	rel 138+4 t=8 runtime.newobject+0
	rel 252+4 t=8 dieseldist.ReceiveInt+0
	rel 288+4 t=8 dieseldist.ReceiveInt+0
	rel 303+4 t=16 "".Edges+0
	rel 326+4 t=16 "".Inlinks+0
	rel 558+4 t=8 dieseldist.SendIntArray+0
	rel 634+4 t=8 dieseldist.ReceiveIntArray+0
	rel 676+4 t=8 runtime.convT64+0
	rel 707+4 t=16 type.string+0
	rel 722+4 t=16 ""..stmp_2+0
	rel 737+4 t=16 type.int+0
	rel 760+4 t=16 os.Stdout+0
	rel 767+4 t=16 go.itab.*os.File,io.Writer+0
	rel 812+4 t=8 fmt.Fprintln+0
	rel 841+4 t=8 runtime.panicIndex+0
	rel 854+4 t=8 runtime.panicIndex+0
	rel 867+4 t=8 runtime.panicIndex+0
	rel 880+4 t=8 runtime.panicIndex+0
	rel 886+4 t=8 runtime.morestack_noctxt+0
"".main STEXT size=1289 args=0x0 locals=0xf0
	0x0000 00000 (/home/vimuth/projects/parallely/diesel/src/bfs-dist/worker.go:166)	TEXT	"".main(SB), ABIInternal, $240-0
	0x0000 00000 (/home/vimuth/projects/parallely/diesel/src/bfs-dist/worker.go:166)	MOVQ	(TLS), CX
	0x0009 00009 (/home/vimuth/projects/parallely/diesel/src/bfs-dist/worker.go:166)	LEAQ	-112(SP), AX
	0x000e 00014 (/home/vimuth/projects/parallely/diesel/src/bfs-dist/worker.go:166)	CMPQ	AX, 16(CX)
	0x0012 00018 (/home/vimuth/projects/parallely/diesel/src/bfs-dist/worker.go:166)	PCDATA	$0, $-2
	0x0012 00018 (/home/vimuth/projects/parallely/diesel/src/bfs-dist/worker.go:166)	JLS	1279
	0x0018 00024 (/home/vimuth/projects/parallely/diesel/src/bfs-dist/worker.go:166)	PCDATA	$0, $-1
	0x0018 00024 (/home/vimuth/projects/parallely/diesel/src/bfs-dist/worker.go:166)	SUBQ	$240, SP
	0x001f 00031 (/home/vimuth/projects/parallely/diesel/src/bfs-dist/worker.go:166)	MOVQ	BP, 232(SP)
	0x0027 00039 (/home/vimuth/projects/parallely/diesel/src/bfs-dist/worker.go:166)	LEAQ	232(SP), BP
	0x002f 00047 (/home/vimuth/projects/parallely/diesel/src/bfs-dist/worker.go:166)	PCDATA	$0, $-2
	0x002f 00047 (/home/vimuth/projects/parallely/diesel/src/bfs-dist/worker.go:166)	PCDATA	$1, $-2
	0x002f 00047 (/home/vimuth/projects/parallely/diesel/src/bfs-dist/worker.go:166)	FUNCDATA	$0, gclocals·0ce64bbc7cfa5ef04d41c861de81a3d7(SB)
	0x002f 00047 (/home/vimuth/projects/parallely/diesel/src/bfs-dist/worker.go:166)	FUNCDATA	$1, gclocals·c2daa8f351d990179e4e1b4c7ad492e3(SB)
	0x002f 00047 (/home/vimuth/projects/parallely/diesel/src/bfs-dist/worker.go:166)	FUNCDATA	$2, gclocals·45951bc026e4ec9d644bd841ee8f9b08(SB)
	0x002f 00047 (/home/vimuth/projects/parallely/diesel/src/bfs-dist/worker.go:166)	FUNCDATA	$3, "".main.stkobj(SB)
	0x002f 00047 (/home/vimuth/projects/parallely/diesel/src/bfs-dist/worker.go:167)	PCDATA	$0, $0
	0x002f 00047 (/home/vimuth/projects/parallely/diesel/src/bfs-dist/worker.go:167)	PCDATA	$1, $0
	0x002f 00047 (/home/vimuth/projects/parallely/diesel/src/bfs-dist/worker.go:167)	MOVQ	os.Args+8(SB), CX
	0x0036 00054 (/home/vimuth/projects/parallely/diesel/src/bfs-dist/worker.go:167)	PCDATA	$0, $1
	0x0036 00054 (/home/vimuth/projects/parallely/diesel/src/bfs-dist/worker.go:167)	MOVQ	os.Args(SB), DX
	0x003d 00061 (/home/vimuth/projects/parallely/diesel/src/bfs-dist/worker.go:167)	CMPQ	CX, $1
	0x0041 00065 (/home/vimuth/projects/parallely/diesel/src/bfs-dist/worker.go:167)	JLS	1268
	0x0047 00071 (/home/vimuth/projects/parallely/diesel/src/bfs-dist/worker.go:167)	MOVQ	24(DX), AX
	0x004b 00075 (/home/vimuth/projects/parallely/diesel/src/bfs-dist/worker.go:167)	PCDATA	$0, $2
	0x004b 00075 (/home/vimuth/projects/parallely/diesel/src/bfs-dist/worker.go:167)	MOVQ	16(DX), CX
	0x004f 00079 (/home/vimuth/projects/parallely/diesel/src/bfs-dist/worker.go:167)	PCDATA	$0, $0
	0x004f 00079 (/home/vimuth/projects/parallely/diesel/src/bfs-dist/worker.go:167)	MOVQ	CX, (SP)
	0x0053 00083 (/home/vimuth/projects/parallely/diesel/src/bfs-dist/worker.go:167)	MOVQ	AX, 8(SP)
	0x0058 00088 (/home/vimuth/projects/parallely/diesel/src/bfs-dist/worker.go:167)	CALL	strconv.Atoi(SB)
	0x005d 00093 (/home/vimuth/projects/parallely/diesel/src/bfs-dist/worker.go:167)	MOVQ	16(SP), AX
	0x0062 00098 (/home/vimuth/projects/parallely/diesel/src/bfs-dist/worker.go:167)	MOVQ	AX, "".tid+72(SP)
	0x0067 00103 (/home/vimuth/projects/parallely/diesel/src/bfs-dist/worker.go:168)	MOVQ	AX, (SP)
	0x006b 00107 (/home/vimuth/projects/parallely/diesel/src/bfs-dist/worker.go:168)	CALL	runtime.convT64(SB)
	0x0070 00112 (/home/vimuth/projects/parallely/diesel/src/bfs-dist/worker.go:168)	PCDATA	$0, $3
	0x0070 00112 (/home/vimuth/projects/parallely/diesel/src/bfs-dist/worker.go:168)	MOVQ	8(SP), AX
	0x0075 00117 (/home/vimuth/projects/parallely/diesel/src/bfs-dist/worker.go:168)	PCDATA	$1, $1
	0x0075 00117 (/home/vimuth/projects/parallely/diesel/src/bfs-dist/worker.go:168)	XORPS	X0, X0
	0x0078 00120 (/home/vimuth/projects/parallely/diesel/src/bfs-dist/worker.go:168)	MOVUPS	X0, ""..autotmp_48+200(SP)
	0x0080 00128 (/home/vimuth/projects/parallely/diesel/src/bfs-dist/worker.go:168)	MOVUPS	X0, ""..autotmp_48+216(SP)
	0x0088 00136 (/home/vimuth/projects/parallely/diesel/src/bfs-dist/worker.go:168)	PCDATA	$0, $4
	0x0088 00136 (/home/vimuth/projects/parallely/diesel/src/bfs-dist/worker.go:168)	LEAQ	type.string(SB), CX
	0x008f 00143 (/home/vimuth/projects/parallely/diesel/src/bfs-dist/worker.go:168)	PCDATA	$0, $3
	0x008f 00143 (/home/vimuth/projects/parallely/diesel/src/bfs-dist/worker.go:168)	MOVQ	CX, ""..autotmp_48+200(SP)
	0x0097 00151 (/home/vimuth/projects/parallely/diesel/src/bfs-dist/worker.go:168)	PCDATA	$0, $5
	0x0097 00151 (/home/vimuth/projects/parallely/diesel/src/bfs-dist/worker.go:168)	LEAQ	""..stmp_3(SB), DX
	0x009e 00158 (/home/vimuth/projects/parallely/diesel/src/bfs-dist/worker.go:168)	PCDATA	$0, $3
	0x009e 00158 (/home/vimuth/projects/parallely/diesel/src/bfs-dist/worker.go:168)	MOVQ	DX, ""..autotmp_48+208(SP)
	0x00a6 00166 (/home/vimuth/projects/parallely/diesel/src/bfs-dist/worker.go:168)	PCDATA	$0, $5
	0x00a6 00166 (/home/vimuth/projects/parallely/diesel/src/bfs-dist/worker.go:168)	LEAQ	type.int(SB), DX
	0x00ad 00173 (/home/vimuth/projects/parallely/diesel/src/bfs-dist/worker.go:168)	PCDATA	$0, $3
	0x00ad 00173 (/home/vimuth/projects/parallely/diesel/src/bfs-dist/worker.go:168)	MOVQ	DX, ""..autotmp_48+216(SP)
	0x00b5 00181 (/home/vimuth/projects/parallely/diesel/src/bfs-dist/worker.go:168)	PCDATA	$0, $0
	0x00b5 00181 (/home/vimuth/projects/parallely/diesel/src/bfs-dist/worker.go:168)	MOVQ	AX, ""..autotmp_48+224(SP)
	0x00bd 00189 (<unknown line number>)	NOP
	0x00bd 00189 ($GOROOT/src/fmt/print.go:274)	PCDATA	$0, $3
	0x00bd 00189 ($GOROOT/src/fmt/print.go:274)	MOVQ	os.Stdout(SB), AX
	0x00c4 00196 ($GOROOT/src/fmt/print.go:274)	PCDATA	$0, $5
	0x00c4 00196 ($GOROOT/src/fmt/print.go:274)	LEAQ	go.itab.*os.File,io.Writer(SB), DX
	0x00cb 00203 ($GOROOT/src/fmt/print.go:274)	PCDATA	$0, $3
	0x00cb 00203 ($GOROOT/src/fmt/print.go:274)	MOVQ	DX, (SP)
	0x00cf 00207 ($GOROOT/src/fmt/print.go:274)	PCDATA	$0, $0
	0x00cf 00207 ($GOROOT/src/fmt/print.go:274)	MOVQ	AX, 8(SP)
	0x00d4 00212 ($GOROOT/src/fmt/print.go:274)	PCDATA	$0, $3
	0x00d4 00212 ($GOROOT/src/fmt/print.go:274)	PCDATA	$1, $0
	0x00d4 00212 ($GOROOT/src/fmt/print.go:274)	LEAQ	""..autotmp_48+200(SP), AX
	0x00dc 00220 ($GOROOT/src/fmt/print.go:274)	PCDATA	$0, $0
	0x00dc 00220 ($GOROOT/src/fmt/print.go:274)	MOVQ	AX, 16(SP)
	0x00e1 00225 ($GOROOT/src/fmt/print.go:274)	MOVQ	$2, 24(SP)
	0x00ea 00234 ($GOROOT/src/fmt/print.go:274)	MOVQ	$2, 32(SP)
	0x00f3 00243 ($GOROOT/src/fmt/print.go:274)	CALL	fmt.Fprintln(SB)
	0x00f8 00248 (/home/vimuth/projects/parallely/diesel/src/bfs-dist/worker.go:170)	MOVQ	$11, "".Num_threads(SB)
	0x0103 00259 (/home/vimuth/projects/parallely/diesel/src/bfs-dist/worker.go:172)	PCDATA	$0, $3
	0x0103 00259 (/home/vimuth/projects/parallely/diesel/src/bfs-dist/worker.go:172)	LEAQ	go.string."../../inputs/p2p-Gnutella30.txt"(SB), AX
	0x010a 00266 (/home/vimuth/projects/parallely/diesel/src/bfs-dist/worker.go:172)	PCDATA	$0, $0
	0x010a 00266 (/home/vimuth/projects/parallely/diesel/src/bfs-dist/worker.go:172)	MOVQ	AX, (SP)
	0x010e 00270 (/home/vimuth/projects/parallely/diesel/src/bfs-dist/worker.go:172)	MOVQ	$31, 8(SP)
	0x0117 00279 (/home/vimuth/projects/parallely/diesel/src/bfs-dist/worker.go:172)	CALL	io/ioutil.ReadFile(SB)
	0x011c 00284 (/home/vimuth/projects/parallely/diesel/src/bfs-dist/worker.go:172)	PCDATA	$0, $3
	0x011c 00284 (/home/vimuth/projects/parallely/diesel/src/bfs-dist/worker.go:172)	MOVQ	16(SP), AX
	0x0121 00289 (/home/vimuth/projects/parallely/diesel/src/bfs-dist/worker.go:172)	PCDATA	$0, $0
	0x0121 00289 (/home/vimuth/projects/parallely/diesel/src/bfs-dist/worker.go:172)	PCDATA	$1, $2
	0x0121 00289 (/home/vimuth/projects/parallely/diesel/src/bfs-dist/worker.go:172)	MOVQ	AX, "".data_bytes.ptr+144(SP)
	0x0129 00297 (/home/vimuth/projects/parallely/diesel/src/bfs-dist/worker.go:172)	MOVQ	24(SP), CX
	0x012e 00302 (/home/vimuth/projects/parallely/diesel/src/bfs-dist/worker.go:172)	MOVQ	CX, "".data_bytes.len+112(SP)
	0x0133 00307 (/home/vimuth/projects/parallely/diesel/src/bfs-dist/worker.go:172)	MOVQ	32(SP), DX
	0x0138 00312 (/home/vimuth/projects/parallely/diesel/src/bfs-dist/worker.go:172)	MOVQ	DX, "".data_bytes.cap+120(SP)
	0x013d 00317 (/home/vimuth/projects/parallely/diesel/src/bfs-dist/worker.go:173)	MOVQ	$36682, "".Num_nodes(SB)
	0x0148 00328 (/home/vimuth/projects/parallely/diesel/src/bfs-dist/worker.go:174)	MOVQ	$36682000, "".Num_edges(SB)
	0x0153 00339 (/home/vimuth/projects/parallely/diesel/src/bfs-dist/worker.go:176)	PCDATA	$1, $3
	0x0153 00339 (/home/vimuth/projects/parallely/diesel/src/bfs-dist/worker.go:176)	XORPS	X0, X0
	0x0156 00342 (/home/vimuth/projects/parallely/diesel/src/bfs-dist/worker.go:176)	MOVUPS	X0, ""..autotmp_52+184(SP)
	0x015e 00350 (/home/vimuth/projects/parallely/diesel/src/bfs-dist/worker.go:176)	PCDATA	$0, $6
	0x015e 00350 (/home/vimuth/projects/parallely/diesel/src/bfs-dist/worker.go:176)	LEAQ	type.string(SB), BX
	0x0165 00357 (/home/vimuth/projects/parallely/diesel/src/bfs-dist/worker.go:176)	PCDATA	$0, $0
	0x0165 00357 (/home/vimuth/projects/parallely/diesel/src/bfs-dist/worker.go:176)	MOVQ	BX, ""..autotmp_52+184(SP)
	0x016d 00365 (/home/vimuth/projects/parallely/diesel/src/bfs-dist/worker.go:176)	PCDATA	$0, $7
	0x016d 00365 (/home/vimuth/projects/parallely/diesel/src/bfs-dist/worker.go:176)	LEAQ	""..stmp_4(SB), SI
	0x0174 00372 (/home/vimuth/projects/parallely/diesel/src/bfs-dist/worker.go:176)	PCDATA	$0, $0
	0x0174 00372 (/home/vimuth/projects/parallely/diesel/src/bfs-dist/worker.go:176)	MOVQ	SI, ""..autotmp_52+192(SP)
	0x017c 00380 (<unknown line number>)	NOP
	0x017c 00380 ($GOROOT/src/fmt/print.go:274)	PCDATA	$0, $7
	0x017c 00380 ($GOROOT/src/fmt/print.go:274)	MOVQ	os.Stdout(SB), SI
	0x0183 00387 ($GOROOT/src/fmt/print.go:274)	PCDATA	$0, $8
	0x0183 00387 ($GOROOT/src/fmt/print.go:274)	LEAQ	go.itab.*os.File,io.Writer(SB), DI
	0x018a 00394 ($GOROOT/src/fmt/print.go:274)	PCDATA	$0, $7
	0x018a 00394 ($GOROOT/src/fmt/print.go:274)	MOVQ	DI, (SP)
	0x018e 00398 ($GOROOT/src/fmt/print.go:274)	PCDATA	$0, $0
	0x018e 00398 ($GOROOT/src/fmt/print.go:274)	MOVQ	SI, 8(SP)
	0x0193 00403 ($GOROOT/src/fmt/print.go:274)	PCDATA	$0, $7
	0x0193 00403 ($GOROOT/src/fmt/print.go:274)	PCDATA	$1, $2
	0x0193 00403 ($GOROOT/src/fmt/print.go:274)	LEAQ	""..autotmp_52+184(SP), SI
	0x019b 00411 ($GOROOT/src/fmt/print.go:274)	PCDATA	$0, $0
	0x019b 00411 ($GOROOT/src/fmt/print.go:274)	MOVQ	SI, 16(SP)
	0x01a0 00416 ($GOROOT/src/fmt/print.go:274)	MOVQ	$1, 24(SP)
	0x01a9 00425 ($GOROOT/src/fmt/print.go:274)	MOVQ	$1, 32(SP)
	0x01b2 00434 ($GOROOT/src/fmt/print.go:274)	CALL	fmt.Fprintln(SB)
	0x01b7 00439 (/home/vimuth/projects/parallely/diesel/src/bfs-dist/worker.go:177)	MOVQ	$0, (SP)
	0x01bf 00447 (/home/vimuth/projects/parallely/diesel/src/bfs-dist/worker.go:177)	PCDATA	$0, $3
	0x01bf 00447 (/home/vimuth/projects/parallely/diesel/src/bfs-dist/worker.go:177)	PCDATA	$1, $0
	0x01bf 00447 (/home/vimuth/projects/parallely/diesel/src/bfs-dist/worker.go:177)	MOVQ	"".data_bytes.ptr+144(SP), AX
	0x01c7 00455 (/home/vimuth/projects/parallely/diesel/src/bfs-dist/worker.go:177)	PCDATA	$0, $0
	0x01c7 00455 (/home/vimuth/projects/parallely/diesel/src/bfs-dist/worker.go:177)	MOVQ	AX, 8(SP)
	0x01cc 00460 (/home/vimuth/projects/parallely/diesel/src/bfs-dist/worker.go:177)	MOVQ	"".data_bytes.len+112(SP), AX
	0x01d1 00465 (/home/vimuth/projects/parallely/diesel/src/bfs-dist/worker.go:177)	MOVQ	AX, 16(SP)
	0x01d6 00470 (/home/vimuth/projects/parallely/diesel/src/bfs-dist/worker.go:177)	MOVQ	"".data_bytes.cap+120(SP), AX
	0x01db 00475 (/home/vimuth/projects/parallely/diesel/src/bfs-dist/worker.go:177)	MOVQ	AX, 24(SP)
	0x01e0 00480 (/home/vimuth/projects/parallely/diesel/src/bfs-dist/worker.go:177)	CALL	runtime.slicebytetostring(SB)
	0x01e5 00485 (/home/vimuth/projects/parallely/diesel/src/bfs-dist/worker.go:177)	PCDATA	$0, $3
	0x01e5 00485 (/home/vimuth/projects/parallely/diesel/src/bfs-dist/worker.go:177)	MOVQ	32(SP), AX
	0x01ea 00490 (/home/vimuth/projects/parallely/diesel/src/bfs-dist/worker.go:177)	MOVQ	40(SP), CX
	0x01ef 00495 (/home/vimuth/projects/parallely/diesel/src/bfs-dist/worker.go:178)	XCHGL	AX, AX
	0x01f0 00496 ($GOROOT/src/strings/strings.go:308)	PCDATA	$0, $0
	0x01f0 00496 ($GOROOT/src/strings/strings.go:308)	MOVQ	AX, (SP)
	0x01f4 00500 ($GOROOT/src/strings/strings.go:308)	MOVQ	CX, 8(SP)
	0x01f9 00505 ($GOROOT/src/strings/strings.go:308)	PCDATA	$0, $3
	0x01f9 00505 ($GOROOT/src/strings/strings.go:308)	LEAQ	go.string."\n"(SB), AX
	0x0200 00512 ($GOROOT/src/strings/strings.go:308)	PCDATA	$0, $0
	0x0200 00512 ($GOROOT/src/strings/strings.go:308)	MOVQ	AX, 16(SP)
	0x0205 00517 ($GOROOT/src/strings/strings.go:308)	MOVQ	$1, 24(SP)
	0x020e 00526 ($GOROOT/src/strings/strings.go:308)	MOVQ	$0, 32(SP)
	0x0217 00535 ($GOROOT/src/strings/strings.go:308)	MOVQ	$-1, 40(SP)
	0x0220 00544 ($GOROOT/src/strings/strings.go:308)	CALL	strings.genSplit(SB)
	0x0225 00549 ($GOROOT/src/strings/strings.go:308)	MOVQ	56(SP), AX
	0x022a 00554 ($GOROOT/src/strings/strings.go:308)	MOVQ	AX, "".data_str_array.len+104(SP)
	0x022f 00559 ($GOROOT/src/strings/strings.go:308)	PCDATA	$0, $2
	0x022f 00559 ($GOROOT/src/strings/strings.go:308)	MOVQ	48(SP), CX
	0x0234 00564 ($GOROOT/src/strings/strings.go:308)	PCDATA	$0, $0
	0x0234 00564 ($GOROOT/src/strings/strings.go:308)	PCDATA	$1, $4
	0x0234 00564 ($GOROOT/src/strings/strings.go:308)	MOVQ	CX, "".data_str_array.ptr+136(SP)
	0x023c 00572 (/home/vimuth/projects/parallely/diesel/src/bfs-dist/worker.go:180)	PCDATA	$1, $5
	0x023c 00572 (/home/vimuth/projects/parallely/diesel/src/bfs-dist/worker.go:180)	XORPS	X0, X0
	0x023f 00575 (/home/vimuth/projects/parallely/diesel/src/bfs-dist/worker.go:180)	MOVUPS	X0, ""..autotmp_56+168(SP)
	0x0247 00583 (/home/vimuth/projects/parallely/diesel/src/bfs-dist/worker.go:180)	PCDATA	$0, $1
	0x0247 00583 (/home/vimuth/projects/parallely/diesel/src/bfs-dist/worker.go:180)	LEAQ	type.string(SB), DX
	0x024e 00590 (/home/vimuth/projects/parallely/diesel/src/bfs-dist/worker.go:180)	PCDATA	$0, $0
	0x024e 00590 (/home/vimuth/projects/parallely/diesel/src/bfs-dist/worker.go:180)	MOVQ	DX, ""..autotmp_56+168(SP)
	0x0256 00598 (/home/vimuth/projects/parallely/diesel/src/bfs-dist/worker.go:180)	PCDATA	$0, $6
	0x0256 00598 (/home/vimuth/projects/parallely/diesel/src/bfs-dist/worker.go:180)	LEAQ	""..stmp_5(SB), BX
	0x025d 00605 (/home/vimuth/projects/parallely/diesel/src/bfs-dist/worker.go:180)	PCDATA	$0, $0
	0x025d 00605 (/home/vimuth/projects/parallely/diesel/src/bfs-dist/worker.go:180)	MOVQ	BX, ""..autotmp_56+176(SP)
	0x0265 00613 (<unknown line number>)	NOP
	0x0265 00613 ($GOROOT/src/fmt/print.go:274)	PCDATA	$0, $6
	0x0265 00613 ($GOROOT/src/fmt/print.go:274)	MOVQ	os.Stdout(SB), BX
	0x026c 00620 ($GOROOT/src/fmt/print.go:274)	PCDATA	$0, $9
	0x026c 00620 ($GOROOT/src/fmt/print.go:274)	LEAQ	go.itab.*os.File,io.Writer(SB), SI
	0x0273 00627 ($GOROOT/src/fmt/print.go:274)	PCDATA	$0, $6
	0x0273 00627 ($GOROOT/src/fmt/print.go:274)	MOVQ	SI, (SP)
	0x0277 00631 ($GOROOT/src/fmt/print.go:274)	PCDATA	$0, $0
	0x0277 00631 ($GOROOT/src/fmt/print.go:274)	MOVQ	BX, 8(SP)
	0x027c 00636 ($GOROOT/src/fmt/print.go:274)	PCDATA	$0, $6
	0x027c 00636 ($GOROOT/src/fmt/print.go:274)	PCDATA	$1, $4
	0x027c 00636 ($GOROOT/src/fmt/print.go:274)	LEAQ	""..autotmp_56+168(SP), BX
	0x0284 00644 ($GOROOT/src/fmt/print.go:274)	PCDATA	$0, $0
	0x0284 00644 ($GOROOT/src/fmt/print.go:274)	MOVQ	BX, 16(SP)
	0x0289 00649 ($GOROOT/src/fmt/print.go:274)	MOVQ	$1, 24(SP)
	0x0292 00658 ($GOROOT/src/fmt/print.go:274)	MOVQ	$1, 32(SP)
	0x029b 00667 ($GOROOT/src/fmt/print.go:274)	CALL	fmt.Fprintln(SB)
	0x02a0 00672 ($GOROOT/src/fmt/print.go:274)	XORL	AX, AX
	0x02a2 00674 (/home/vimuth/projects/parallely/diesel/src/bfs-dist/worker.go:180)	JMP	724
	0x02a4 00676 (/home/vimuth/projects/parallely/diesel/src/bfs-dist/worker.go:183)	PCDATA	$0, $2
	0x02a4 00676 (/home/vimuth/projects/parallely/diesel/src/bfs-dist/worker.go:183)	LEAQ	"".Inlinks(SB), CX
	0x02ab 00683 (/home/vimuth/projects/parallely/diesel/src/bfs-dist/worker.go:183)	PCDATA	$0, $0
	0x02ab 00683 (/home/vimuth/projects/parallely/diesel/src/bfs-dist/worker.go:183)	MOVQ	$0, (CX)(AX*8)
	0x02b3 00691 (/home/vimuth/projects/parallely/diesel/src/bfs-dist/worker.go:184)	PCDATA	$0, $1
	0x02b3 00691 (/home/vimuth/projects/parallely/diesel/src/bfs-dist/worker.go:184)	LEAQ	"".Outlinks(SB), DX
	0x02ba 00698 (/home/vimuth/projects/parallely/diesel/src/bfs-dist/worker.go:184)	PCDATA	$0, $0
	0x02ba 00698 (/home/vimuth/projects/parallely/diesel/src/bfs-dist/worker.go:184)	MOVQ	$0, (DX)(AX*8)
	0x02c2 00706 (/home/vimuth/projects/parallely/diesel/src/bfs-dist/worker.go:185)	PCDATA	$0, $6
	0x02c2 00706 (/home/vimuth/projects/parallely/diesel/src/bfs-dist/worker.go:185)	LEAQ	"".DistGlobal(SB), BX
	0x02c9 00713 (/home/vimuth/projects/parallely/diesel/src/bfs-dist/worker.go:185)	PCDATA	$0, $0
	0x02c9 00713 (/home/vimuth/projects/parallely/diesel/src/bfs-dist/worker.go:185)	MOVQ	$0, (BX)(AX*8)
	0x02d1 00721 (/home/vimuth/projects/parallely/diesel/src/bfs-dist/worker.go:182)	INCQ	AX
	0x02d4 00724 (/home/vimuth/projects/parallely/diesel/src/bfs-dist/worker.go:182)	CMPQ	AX, $36682
	0x02da 00730 (/home/vimuth/projects/parallely/diesel/src/bfs-dist/worker.go:182)	JLT	676
	0x02dc 00732 (/home/vimuth/projects/parallely/diesel/src/bfs-dist/worker.go:187)	MOVQ	$1, "".DistGlobal(SB)
	0x02e7 00743 (/home/vimuth/projects/parallely/diesel/src/bfs-dist/worker.go:189)	MOVQ	"".Num_threads(SB), CX
	0x02ee 00750 (/home/vimuth/projects/parallely/diesel/src/bfs-dist/worker.go:189)	MOVQ	"".Num_nodes(SB), AX
	0x02f5 00757 (/home/vimuth/projects/parallely/diesel/src/bfs-dist/worker.go:189)	TESTQ	CX, CX
	0x02f8 00760 (/home/vimuth/projects/parallely/diesel/src/bfs-dist/worker.go:189)	JEQ	1263
	0x02fe 00766 (/home/vimuth/projects/parallely/diesel/src/bfs-dist/worker.go:189)	CMPQ	CX, $-1
	0x0302 00770 (/home/vimuth/projects/parallely/diesel/src/bfs-dist/worker.go:189)	JEQ	779
	0x0304 00772 (/home/vimuth/projects/parallely/diesel/src/bfs-dist/worker.go:189)	CQO
	0x0306 00774 (/home/vimuth/projects/parallely/diesel/src/bfs-dist/worker.go:189)	IDIVQ	CX
	0x0309 00777 (/home/vimuth/projects/parallely/diesel/src/bfs-dist/worker.go:189)	JMP	784
	0x030b 00779 (/home/vimuth/projects/parallely/diesel/src/bfs-dist/worker.go:189)	NEGQ	AX
	0x030e 00782 (/home/vimuth/projects/parallely/diesel/src/bfs-dist/worker.go:189)	XORL	DX, DX
	0x0310 00784 (/home/vimuth/projects/parallely/diesel/src/bfs-dist/worker.go:189)	MOVQ	AX, "".NodesPerThread(SB)
	0x0317 00791 (/home/vimuth/projects/parallely/diesel/src/bfs-dist/worker.go:191)	PCDATA	$1, $6
	0x0317 00791 (/home/vimuth/projects/parallely/diesel/src/bfs-dist/worker.go:191)	XORPS	X0, X0
	0x031a 00794 (/home/vimuth/projects/parallely/diesel/src/bfs-dist/worker.go:191)	MOVUPS	X0, ""..autotmp_62+152(SP)
	0x0322 00802 (/home/vimuth/projects/parallely/diesel/src/bfs-dist/worker.go:191)	PCDATA	$0, $2
	0x0322 00802 (/home/vimuth/projects/parallely/diesel/src/bfs-dist/worker.go:191)	LEAQ	type.string(SB), CX
	0x0329 00809 (/home/vimuth/projects/parallely/diesel/src/bfs-dist/worker.go:191)	PCDATA	$0, $0
	0x0329 00809 (/home/vimuth/projects/parallely/diesel/src/bfs-dist/worker.go:191)	MOVQ	CX, ""..autotmp_62+152(SP)
	0x0331 00817 (/home/vimuth/projects/parallely/diesel/src/bfs-dist/worker.go:191)	PCDATA	$0, $2
	0x0331 00817 (/home/vimuth/projects/parallely/diesel/src/bfs-dist/worker.go:191)	LEAQ	""..stmp_6(SB), CX
	0x0338 00824 (/home/vimuth/projects/parallely/diesel/src/bfs-dist/worker.go:191)	PCDATA	$0, $0
	0x0338 00824 (/home/vimuth/projects/parallely/diesel/src/bfs-dist/worker.go:191)	MOVQ	CX, ""..autotmp_62+160(SP)
	0x0340 00832 (<unknown line number>)	NOP
	0x0340 00832 ($GOROOT/src/fmt/print.go:274)	PCDATA	$0, $2
	0x0340 00832 ($GOROOT/src/fmt/print.go:274)	MOVQ	os.Stdout(SB), CX
	0x0347 00839 ($GOROOT/src/fmt/print.go:274)	PCDATA	$0, $10
	0x0347 00839 ($GOROOT/src/fmt/print.go:274)	LEAQ	go.itab.*os.File,io.Writer(SB), DX
	0x034e 00846 ($GOROOT/src/fmt/print.go:274)	PCDATA	$0, $2
	0x034e 00846 ($GOROOT/src/fmt/print.go:274)	MOVQ	DX, (SP)
	0x0352 00850 ($GOROOT/src/fmt/print.go:274)	PCDATA	$0, $0
	0x0352 00850 ($GOROOT/src/fmt/print.go:274)	MOVQ	CX, 8(SP)
	0x0357 00855 ($GOROOT/src/fmt/print.go:274)	PCDATA	$0, $2
	0x0357 00855 ($GOROOT/src/fmt/print.go:274)	PCDATA	$1, $4
	0x0357 00855 ($GOROOT/src/fmt/print.go:274)	LEAQ	""..autotmp_62+152(SP), CX
	0x035f 00863 ($GOROOT/src/fmt/print.go:274)	PCDATA	$0, $0
	0x035f 00863 ($GOROOT/src/fmt/print.go:274)	MOVQ	CX, 16(SP)
	0x0364 00868 ($GOROOT/src/fmt/print.go:274)	MOVQ	$1, 24(SP)
	0x036d 00877 ($GOROOT/src/fmt/print.go:274)	MOVQ	$1, 32(SP)
	0x0376 00886 ($GOROOT/src/fmt/print.go:274)	CALL	fmt.Fprintln(SB)
	0x037b 00891 ($GOROOT/src/fmt/print.go:274)	MOVL	$1, AX
	0x0380 00896 (/home/vimuth/projects/parallely/diesel/src/bfs-dist/worker.go:191)	JMP	925
	0x0382 00898 (/home/vimuth/projects/parallely/diesel/src/bfs-dist/worker.go:199)	PCDATA	$0, $2
	0x0382 00898 (/home/vimuth/projects/parallely/diesel/src/bfs-dist/worker.go:199)	LEAQ	"".Outlinks(SB), CX
	0x0389 00905 (/home/vimuth/projects/parallely/diesel/src/bfs-dist/worker.go:199)	MOVQ	(CX)(SI*8), DX
	0x038d 00909 (/home/vimuth/projects/parallely/diesel/src/bfs-dist/worker.go:199)	INCQ	DX
	0x0390 00912 (/home/vimuth/projects/parallely/diesel/src/bfs-dist/worker.go:199)	PCDATA	$0, $0
	0x0390 00912 (/home/vimuth/projects/parallely/diesel/src/bfs-dist/worker.go:199)	MOVQ	DX, (CX)(SI*8)
	0x0394 00916 (/home/vimuth/projects/parallely/diesel/src/bfs-dist/worker.go:192)	MOVQ	"".i+88(SP), DX
	0x0399 00921 (/home/vimuth/projects/parallely/diesel/src/bfs-dist/worker.go:192)	LEAQ	1(DX), AX
	0x039d 00925 (/home/vimuth/projects/parallely/diesel/src/bfs-dist/worker.go:192)	MOVQ	"".data_str_array.len+104(SP), CX
	0x03a2 00930 (/home/vimuth/projects/parallely/diesel/src/bfs-dist/worker.go:192)	LEAQ	-1(CX), DX
	0x03a6 00934 (/home/vimuth/projects/parallely/diesel/src/bfs-dist/worker.go:192)	CMPQ	AX, DX
	0x03a9 00937 (/home/vimuth/projects/parallely/diesel/src/bfs-dist/worker.go:192)	JGE	1180
	0x03af 00943 (/home/vimuth/projects/parallely/diesel/src/bfs-dist/worker.go:192)	MOVQ	AX, "".i+88(SP)
	0x03b4 00948 (/home/vimuth/projects/parallely/diesel/src/bfs-dist/worker.go:193)	SHLQ	$4, AX
	0x03b8 00952 (/home/vimuth/projects/parallely/diesel/src/bfs-dist/worker.go:193)	PCDATA	$0, $1
	0x03b8 00952 (/home/vimuth/projects/parallely/diesel/src/bfs-dist/worker.go:193)	MOVQ	"".data_str_array.ptr+136(SP), DX
	0x03c0 00960 (/home/vimuth/projects/parallely/diesel/src/bfs-dist/worker.go:193)	MOVQ	8(DX)(AX*1), BX
	0x03c5 00965 (/home/vimuth/projects/parallely/diesel/src/bfs-dist/worker.go:193)	PCDATA	$0, $3
	0x03c5 00965 (/home/vimuth/projects/parallely/diesel/src/bfs-dist/worker.go:193)	MOVQ	(DX)(AX*1), AX
	0x03c9 00969 (/home/vimuth/projects/parallely/diesel/src/bfs-dist/worker.go:193)	PCDATA	$0, $0
	0x03c9 00969 (/home/vimuth/projects/parallely/diesel/src/bfs-dist/worker.go:193)	MOVQ	AX, (SP)
	0x03cd 00973 (/home/vimuth/projects/parallely/diesel/src/bfs-dist/worker.go:193)	MOVQ	BX, 8(SP)
	0x03d2 00978 (/home/vimuth/projects/parallely/diesel/src/bfs-dist/worker.go:193)	CALL	strings.Fields(SB)
	0x03d7 00983 (/home/vimuth/projects/parallely/diesel/src/bfs-dist/worker.go:193)	MOVQ	24(SP), CX
	0x03dc 00988 (/home/vimuth/projects/parallely/diesel/src/bfs-dist/worker.go:193)	PCDATA	$0, $3
	0x03dc 00988 (/home/vimuth/projects/parallely/diesel/src/bfs-dist/worker.go:193)	MOVQ	16(SP), AX
	0x03e1 00993 (/home/vimuth/projects/parallely/diesel/src/bfs-dist/worker.go:194)	TESTQ	CX, CX
	0x03e4 00996 (/home/vimuth/projects/parallely/diesel/src/bfs-dist/worker.go:194)	JLS	1256
	0x03ea 01002 (/home/vimuth/projects/parallely/diesel/src/bfs-dist/worker.go:193)	MOVQ	CX, "".elements.len+96(SP)
	0x03ef 01007 (/home/vimuth/projects/parallely/diesel/src/bfs-dist/worker.go:193)	PCDATA	$1, $7
	0x03ef 01007 (/home/vimuth/projects/parallely/diesel/src/bfs-dist/worker.go:193)	MOVQ	AX, "".elements.ptr+128(SP)
	0x03f7 01015 (/home/vimuth/projects/parallely/diesel/src/bfs-dist/worker.go:194)	PCDATA	$0, $4
	0x03f7 01015 (/home/vimuth/projects/parallely/diesel/src/bfs-dist/worker.go:194)	MOVQ	(AX), CX
	0x03fa 01018 (/home/vimuth/projects/parallely/diesel/src/bfs-dist/worker.go:194)	PCDATA	$0, $2
	0x03fa 01018 (/home/vimuth/projects/parallely/diesel/src/bfs-dist/worker.go:194)	MOVQ	8(AX), DX
	0x03fe 01022 (/home/vimuth/projects/parallely/diesel/src/bfs-dist/worker.go:194)	PCDATA	$0, $0
	0x03fe 01022 (/home/vimuth/projects/parallely/diesel/src/bfs-dist/worker.go:194)	MOVQ	CX, (SP)
	0x0402 01026 (/home/vimuth/projects/parallely/diesel/src/bfs-dist/worker.go:194)	MOVQ	DX, 8(SP)
	0x0407 01031 (/home/vimuth/projects/parallely/diesel/src/bfs-dist/worker.go:194)	CALL	strconv.Atoi(SB)
	0x040c 01036 (/home/vimuth/projects/parallely/diesel/src/bfs-dist/worker.go:194)	MOVQ	16(SP), AX
	0x0411 01041 (/home/vimuth/projects/parallely/diesel/src/bfs-dist/worker.go:195)	MOVQ	"".elements.len+96(SP), CX
	0x0416 01046 (/home/vimuth/projects/parallely/diesel/src/bfs-dist/worker.go:195)	CMPQ	CX, $1
	0x041a 01050 (/home/vimuth/projects/parallely/diesel/src/bfs-dist/worker.go:195)	JLS	1246
	0x0420 01056 (/home/vimuth/projects/parallely/diesel/src/bfs-dist/worker.go:194)	MOVQ	AX, "".index1+80(SP)
	0x0425 01061 (/home/vimuth/projects/parallely/diesel/src/bfs-dist/worker.go:195)	PCDATA	$0, $3
	0x0425 01061 (/home/vimuth/projects/parallely/diesel/src/bfs-dist/worker.go:195)	PCDATA	$1, $4
	0x0425 01061 (/home/vimuth/projects/parallely/diesel/src/bfs-dist/worker.go:195)	MOVQ	"".elements.ptr+128(SP), AX
	0x042d 01069 (/home/vimuth/projects/parallely/diesel/src/bfs-dist/worker.go:195)	PCDATA	$0, $4
	0x042d 01069 (/home/vimuth/projects/parallely/diesel/src/bfs-dist/worker.go:195)	MOVQ	16(AX), CX
	0x0431 01073 (/home/vimuth/projects/parallely/diesel/src/bfs-dist/worker.go:195)	PCDATA	$0, $2
	0x0431 01073 (/home/vimuth/projects/parallely/diesel/src/bfs-dist/worker.go:195)	MOVQ	24(AX), AX
	0x0435 01077 (/home/vimuth/projects/parallely/diesel/src/bfs-dist/worker.go:195)	PCDATA	$0, $0
	0x0435 01077 (/home/vimuth/projects/parallely/diesel/src/bfs-dist/worker.go:195)	MOVQ	CX, (SP)
	0x0439 01081 (/home/vimuth/projects/parallely/diesel/src/bfs-dist/worker.go:195)	MOVQ	AX, 8(SP)
	0x043e 01086 (/home/vimuth/projects/parallely/diesel/src/bfs-dist/worker.go:195)	CALL	strconv.Atoi(SB)
	0x0443 01091 (/home/vimuth/projects/parallely/diesel/src/bfs-dist/worker.go:195)	MOVQ	16(SP), AX
	0x0448 01096 (/home/vimuth/projects/parallely/diesel/src/bfs-dist/worker.go:197)	CMPQ	AX, $36682
	0x044e 01102 (/home/vimuth/projects/parallely/diesel/src/bfs-dist/worker.go:197)	JCC	1236
	0x0454 01108 (/home/vimuth/projects/parallely/diesel/src/bfs-dist/worker.go:197)	IMUL3Q	$1000, AX, DX
	0x045b 01115 (/home/vimuth/projects/parallely/diesel/src/bfs-dist/worker.go:197)	PCDATA	$0, $6
	0x045b 01115 (/home/vimuth/projects/parallely/diesel/src/bfs-dist/worker.go:197)	LEAQ	"".Inlinks(SB), BX
	0x0462 01122 (/home/vimuth/projects/parallely/diesel/src/bfs-dist/worker.go:197)	MOVQ	(BX)(AX*8), SI
	0x0466 01126 (/home/vimuth/projects/parallely/diesel/src/bfs-dist/worker.go:197)	ADDQ	SI, DX
	0x0469 01129 (/home/vimuth/projects/parallely/diesel/src/bfs-dist/worker.go:197)	CMPQ	DX, $36682000
	0x0470 01136 (/home/vimuth/projects/parallely/diesel/src/bfs-dist/worker.go:197)	JCC	1223
	0x0472 01138 (/home/vimuth/projects/parallely/diesel/src/bfs-dist/worker.go:197)	MOVQ	"".index1+80(SP), SI
	0x0477 01143 (/home/vimuth/projects/parallely/diesel/src/bfs-dist/worker.go:197)	PCDATA	$0, $11
	0x0477 01143 (/home/vimuth/projects/parallely/diesel/src/bfs-dist/worker.go:197)	LEAQ	"".Edges(SB), DI
	0x047e 01150 (/home/vimuth/projects/parallely/diesel/src/bfs-dist/worker.go:197)	PCDATA	$0, $6
	0x047e 01150 (/home/vimuth/projects/parallely/diesel/src/bfs-dist/worker.go:197)	MOVQ	SI, (DI)(DX*8)
	0x0482 01154 (/home/vimuth/projects/parallely/diesel/src/bfs-dist/worker.go:198)	MOVQ	(BX)(AX*8), DX
	0x0486 01158 (/home/vimuth/projects/parallely/diesel/src/bfs-dist/worker.go:198)	INCQ	DX
	0x0489 01161 (/home/vimuth/projects/parallely/diesel/src/bfs-dist/worker.go:198)	PCDATA	$0, $0
	0x0489 01161 (/home/vimuth/projects/parallely/diesel/src/bfs-dist/worker.go:198)	MOVQ	DX, (BX)(AX*8)
	0x048d 01165 (/home/vimuth/projects/parallely/diesel/src/bfs-dist/worker.go:199)	CMPQ	SI, $36682
	0x0494 01172 (/home/vimuth/projects/parallely/diesel/src/bfs-dist/worker.go:199)	JCS	898
	0x049a 01178 (/home/vimuth/projects/parallely/diesel/src/bfs-dist/worker.go:199)	JMP	1210
	0x049c 01180 (/home/vimuth/projects/parallely/diesel/src/bfs-dist/worker.go:203)	PCDATA	$1, $0
	0x049c 01180 (/home/vimuth/projects/parallely/diesel/src/bfs-dist/worker.go:203)	MOVQ	"".tid+72(SP), AX
	0x04a1 01185 (/home/vimuth/projects/parallely/diesel/src/bfs-dist/worker.go:203)	MOVQ	AX, (SP)
	0x04a5 01189 (/home/vimuth/projects/parallely/diesel/src/bfs-dist/worker.go:203)	CALL	"".func_Q(SB)
	0x04aa 01194 (/home/vimuth/projects/parallely/diesel/src/bfs-dist/worker.go:205)	MOVQ	232(SP), BP
	0x04b2 01202 (/home/vimuth/projects/parallely/diesel/src/bfs-dist/worker.go:205)	ADDQ	$240, SP
	0x04b9 01209 (/home/vimuth/projects/parallely/diesel/src/bfs-dist/worker.go:205)	RET
	0x04ba 01210 (/home/vimuth/projects/parallely/diesel/src/bfs-dist/worker.go:199)	MOVQ	SI, AX
	0x04bd 01213 (/home/vimuth/projects/parallely/diesel/src/bfs-dist/worker.go:199)	MOVL	$36682, CX
	0x04c2 01218 (/home/vimuth/projects/parallely/diesel/src/bfs-dist/worker.go:199)	CALL	runtime.panicIndex(SB)
	0x04c7 01223 (/home/vimuth/projects/parallely/diesel/src/bfs-dist/worker.go:197)	MOVQ	DX, AX
	0x04ca 01226 (/home/vimuth/projects/parallely/diesel/src/bfs-dist/worker.go:197)	MOVL	$36682000, CX
	0x04cf 01231 (/home/vimuth/projects/parallely/diesel/src/bfs-dist/worker.go:197)	CALL	runtime.panicIndex(SB)
	0x04d4 01236 (/home/vimuth/projects/parallely/diesel/src/bfs-dist/worker.go:197)	MOVL	$36682, CX
	0x04d9 01241 (/home/vimuth/projects/parallely/diesel/src/bfs-dist/worker.go:197)	CALL	runtime.panicIndex(SB)
	0x04de 01246 (/home/vimuth/projects/parallely/diesel/src/bfs-dist/worker.go:195)	MOVL	$1, AX
	0x04e3 01251 (/home/vimuth/projects/parallely/diesel/src/bfs-dist/worker.go:195)	CALL	runtime.panicIndex(SB)
	0x04e8 01256 (/home/vimuth/projects/parallely/diesel/src/bfs-dist/worker.go:194)	XORL	AX, AX
	0x04ea 01258 (/home/vimuth/projects/parallely/diesel/src/bfs-dist/worker.go:194)	CALL	runtime.panicIndex(SB)
	0x04ef 01263 (/home/vimuth/projects/parallely/diesel/src/bfs-dist/worker.go:189)	CALL	runtime.panicdivide(SB)
	0x04f4 01268 (/home/vimuth/projects/parallely/diesel/src/bfs-dist/worker.go:167)	MOVL	$1, AX
	0x04f9 01273 (/home/vimuth/projects/parallely/diesel/src/bfs-dist/worker.go:167)	CALL	runtime.panicIndex(SB)
	0x04fe 01278 (/home/vimuth/projects/parallely/diesel/src/bfs-dist/worker.go:167)	XCHGL	AX, AX
	0x04ff 01279 (/home/vimuth/projects/parallely/diesel/src/bfs-dist/worker.go:167)	NOP
	0x04ff 01279 (/home/vimuth/projects/parallely/diesel/src/bfs-dist/worker.go:166)	PCDATA	$1, $-1
	0x04ff 01279 (/home/vimuth/projects/parallely/diesel/src/bfs-dist/worker.go:166)	PCDATA	$0, $-2
	0x04ff 01279 (/home/vimuth/projects/parallely/diesel/src/bfs-dist/worker.go:166)	CALL	runtime.morestack_noctxt(SB)
	0x0504 01284 (/home/vimuth/projects/parallely/diesel/src/bfs-dist/worker.go:166)	PCDATA	$0, $-1
	0x0504 01284 (/home/vimuth/projects/parallely/diesel/src/bfs-dist/worker.go:166)	JMP	0
	0x0000 64 48 8b 0c 25 00 00 00 00 48 8d 44 24 90 48 3b  dH..%....H.D$.H;
	0x0010 41 10 0f 86 e7 04 00 00 48 81 ec f0 00 00 00 48  A.......H......H
	0x0020 89 ac 24 e8 00 00 00 48 8d ac 24 e8 00 00 00 48  ..$....H..$....H
	0x0030 8b 0d 00 00 00 00 48 8b 15 00 00 00 00 48 83 f9  ......H......H..
	0x0040 01 0f 86 ad 04 00 00 48 8b 42 18 48 8b 4a 10 48  .......H.B.H.J.H
	0x0050 89 0c 24 48 89 44 24 08 e8 00 00 00 00 48 8b 44  ..$H.D$......H.D
	0x0060 24 10 48 89 44 24 48 48 89 04 24 e8 00 00 00 00  $.H.D$HH..$.....
	0x0070 48 8b 44 24 08 0f 57 c0 0f 11 84 24 c8 00 00 00  H.D$..W....$....
	0x0080 0f 11 84 24 d8 00 00 00 48 8d 0d 00 00 00 00 48  ...$....H......H
	0x0090 89 8c 24 c8 00 00 00 48 8d 15 00 00 00 00 48 89  ..$....H......H.
	0x00a0 94 24 d0 00 00 00 48 8d 15 00 00 00 00 48 89 94  .$....H......H..
	0x00b0 24 d8 00 00 00 48 89 84 24 e0 00 00 00 48 8b 05  $....H..$....H..
	0x00c0 00 00 00 00 48 8d 15 00 00 00 00 48 89 14 24 48  ....H......H..$H
	0x00d0 89 44 24 08 48 8d 84 24 c8 00 00 00 48 89 44 24  .D$.H..$....H.D$
	0x00e0 10 48 c7 44 24 18 02 00 00 00 48 c7 44 24 20 02  .H.D$.....H.D$ .
	0x00f0 00 00 00 e8 00 00 00 00 48 c7 05 00 00 00 00 0b  ........H.......
	0x0100 00 00 00 48 8d 05 00 00 00 00 48 89 04 24 48 c7  ...H......H..$H.
	0x0110 44 24 08 1f 00 00 00 e8 00 00 00 00 48 8b 44 24  D$..........H.D$
	0x0120 10 48 89 84 24 90 00 00 00 48 8b 4c 24 18 48 89  .H..$....H.L$.H.
	0x0130 4c 24 70 48 8b 54 24 20 48 89 54 24 78 48 c7 05  L$pH.T$ H.T$xH..
	0x0140 00 00 00 00 4a 8f 00 00 48 c7 05 00 00 00 00 10  ....J...H.......
	0x0150 b9 2f 02 0f 57 c0 0f 11 84 24 b8 00 00 00 48 8d  ./..W....$....H.
	0x0160 1d 00 00 00 00 48 89 9c 24 b8 00 00 00 48 8d 35  .....H..$....H.5
	0x0170 00 00 00 00 48 89 b4 24 c0 00 00 00 48 8b 35 00  ....H..$....H.5.
	0x0180 00 00 00 48 8d 3d 00 00 00 00 48 89 3c 24 48 89  ...H.=....H.<$H.
	0x0190 74 24 08 48 8d b4 24 b8 00 00 00 48 89 74 24 10  t$.H..$....H.t$.
	0x01a0 48 c7 44 24 18 01 00 00 00 48 c7 44 24 20 01 00  H.D$.....H.D$ ..
	0x01b0 00 00 e8 00 00 00 00 48 c7 04 24 00 00 00 00 48  .......H..$....H
	0x01c0 8b 84 24 90 00 00 00 48 89 44 24 08 48 8b 44 24  ..$....H.D$.H.D$
	0x01d0 70 48 89 44 24 10 48 8b 44 24 78 48 89 44 24 18  pH.D$.H.D$xH.D$.
	0x01e0 e8 00 00 00 00 48 8b 44 24 20 48 8b 4c 24 28 90  .....H.D$ H.L$(.
	0x01f0 48 89 04 24 48 89 4c 24 08 48 8d 05 00 00 00 00  H..$H.L$.H......
	0x0200 48 89 44 24 10 48 c7 44 24 18 01 00 00 00 48 c7  H.D$.H.D$.....H.
	0x0210 44 24 20 00 00 00 00 48 c7 44 24 28 ff ff ff ff  D$ ....H.D$(....
	0x0220 e8 00 00 00 00 48 8b 44 24 38 48 89 44 24 68 48  .....H.D$8H.D$hH
	0x0230 8b 4c 24 30 48 89 8c 24 88 00 00 00 0f 57 c0 0f  .L$0H..$.....W..
	0x0240 11 84 24 a8 00 00 00 48 8d 15 00 00 00 00 48 89  ..$....H......H.
	0x0250 94 24 a8 00 00 00 48 8d 1d 00 00 00 00 48 89 9c  .$....H......H..
	0x0260 24 b0 00 00 00 48 8b 1d 00 00 00 00 48 8d 35 00  $....H......H.5.
	0x0270 00 00 00 48 89 34 24 48 89 5c 24 08 48 8d 9c 24  ...H.4$H.\$.H..$
	0x0280 a8 00 00 00 48 89 5c 24 10 48 c7 44 24 18 01 00  ....H.\$.H.D$...
	0x0290 00 00 48 c7 44 24 20 01 00 00 00 e8 00 00 00 00  ..H.D$ .........
	0x02a0 31 c0 eb 30 48 8d 0d 00 00 00 00 48 c7 04 c1 00  1..0H......H....
	0x02b0 00 00 00 48 8d 15 00 00 00 00 48 c7 04 c2 00 00  ...H......H.....
	0x02c0 00 00 48 8d 1d 00 00 00 00 48 c7 04 c3 00 00 00  ..H......H......
	0x02d0 00 48 ff c0 48 3d 4a 8f 00 00 7c c8 48 c7 05 00  .H..H=J...|.H...
	0x02e0 00 00 00 01 00 00 00 48 8b 0d 00 00 00 00 48 8b  .......H......H.
	0x02f0 05 00 00 00 00 48 85 c9 0f 84 f1 01 00 00 48 83  .....H........H.
	0x0300 f9 ff 74 07 48 99 48 f7 f9 eb 05 48 f7 d8 31 d2  ..t.H.H....H..1.
	0x0310 48 89 05 00 00 00 00 0f 57 c0 0f 11 84 24 98 00  H.......W....$..
	0x0320 00 00 48 8d 0d 00 00 00 00 48 89 8c 24 98 00 00  ..H......H..$...
	0x0330 00 48 8d 0d 00 00 00 00 48 89 8c 24 a0 00 00 00  .H......H..$....
	0x0340 48 8b 0d 00 00 00 00 48 8d 15 00 00 00 00 48 89  H......H......H.
	0x0350 14 24 48 89 4c 24 08 48 8d 8c 24 98 00 00 00 48  .$H.L$.H..$....H
	0x0360 89 4c 24 10 48 c7 44 24 18 01 00 00 00 48 c7 44  .L$.H.D$.....H.D
	0x0370 24 20 01 00 00 00 e8 00 00 00 00 b8 01 00 00 00  $ ..............
	0x0380 eb 1b 48 8d 0d 00 00 00 00 48 8b 14 f1 48 ff c2  ..H......H...H..
	0x0390 48 89 14 f1 48 8b 54 24 58 48 8d 42 01 48 8b 4c  H...H.T$XH.B.H.L
	0x03a0 24 68 48 8d 51 ff 48 39 d0 0f 8d ed 00 00 00 48  $hH.Q.H9.......H
	0x03b0 89 44 24 58 48 c1 e0 04 48 8b 94 24 88 00 00 00  .D$XH...H..$....
	0x03c0 48 8b 5c 02 08 48 8b 04 02 48 89 04 24 48 89 5c  H.\..H...H..$H.\
	0x03d0 24 08 e8 00 00 00 00 48 8b 4c 24 18 48 8b 44 24  $......H.L$.H.D$
	0x03e0 10 48 85 c9 0f 86 fe 00 00 00 48 89 4c 24 60 48  .H........H.L$`H
	0x03f0 89 84 24 80 00 00 00 48 8b 08 48 8b 50 08 48 89  ..$....H..H.P.H.
	0x0400 0c 24 48 89 54 24 08 e8 00 00 00 00 48 8b 44 24  .$H.T$......H.D$
	0x0410 10 48 8b 4c 24 60 48 83 f9 01 0f 86 be 00 00 00  .H.L$`H.........
	0x0420 48 89 44 24 50 48 8b 84 24 80 00 00 00 48 8b 48  H.D$PH..$....H.H
	0x0430 10 48 8b 40 18 48 89 0c 24 48 89 44 24 08 e8 00  .H.@.H..$H.D$...
	0x0440 00 00 00 48 8b 44 24 10 48 3d 4a 8f 00 00 0f 83  ...H.D$.H=J.....
	0x0450 80 00 00 00 48 69 d0 e8 03 00 00 48 8d 1d 00 00  ....Hi.....H....
	0x0460 00 00 48 8b 34 c3 48 01 f2 48 81 fa 10 b9 2f 02  ..H.4.H..H..../.
	0x0470 73 55 48 8b 74 24 50 48 8d 3d 00 00 00 00 48 89  sUH.t$PH.=....H.
	0x0480 34 d7 48 8b 14 c3 48 ff c2 48 89 14 c3 48 81 fe  4.H...H..H...H..
	0x0490 4a 8f 00 00 0f 82 e8 fe ff ff eb 1e 48 8b 44 24  J...........H.D$
	0x04a0 48 48 89 04 24 e8 00 00 00 00 48 8b ac 24 e8 00  HH..$.....H..$..
	0x04b0 00 00 48 81 c4 f0 00 00 00 c3 48 89 f0 b9 4a 8f  ..H.......H...J.
	0x04c0 00 00 e8 00 00 00 00 48 89 d0 b9 10 b9 2f 02 e8  .......H...../..
	0x04d0 00 00 00 00 b9 4a 8f 00 00 e8 00 00 00 00 b8 01  .....J..........
	0x04e0 00 00 00 e8 00 00 00 00 31 c0 e8 00 00 00 00 e8  ........1.......
	0x04f0 00 00 00 00 b8 01 00 00 00 e8 00 00 00 00 90 e8  ................
	0x0500 00 00 00 00 e9 f7 fa ff ff                       .........
	rel 5+4 t=17 TLS+0
	rel 50+4 t=16 os.Args+8
	rel 57+4 t=16 os.Args+0
	rel 89+4 t=8 strconv.Atoi+0
	rel 108+4 t=8 runtime.convT64+0
	rel 139+4 t=16 type.string+0
	rel 154+4 t=16 ""..stmp_3+0
	rel 169+4 t=16 type.int+0
	rel 192+4 t=16 os.Stdout+0
	rel 199+4 t=16 go.itab.*os.File,io.Writer+0
	rel 244+4 t=8 fmt.Fprintln+0
	rel 251+4 t=16 "".Num_threads+-4
	rel 262+4 t=16 go.string."../../inputs/p2p-Gnutella30.txt"+0
	rel 280+4 t=8 io/ioutil.ReadFile+0
	rel 320+4 t=16 "".Num_nodes+-4
	rel 331+4 t=16 "".Num_edges+-4
	rel 353+4 t=16 type.string+0
	rel 368+4 t=16 ""..stmp_4+0
	rel 383+4 t=16 os.Stdout+0
	rel 390+4 t=16 go.itab.*os.File,io.Writer+0
	rel 435+4 t=8 fmt.Fprintln+0
	rel 481+4 t=8 runtime.slicebytetostring+0
	rel 508+4 t=16 go.string."\n"+0
	rel 545+4 t=8 strings.genSplit+0
	rel 586+4 t=16 type.string+0
	rel 601+4 t=16 ""..stmp_5+0
	rel 616+4 t=16 os.Stdout+0
	rel 623+4 t=16 go.itab.*os.File,io.Writer+0
	rel 668+4 t=8 fmt.Fprintln+0
	rel 679+4 t=16 "".Inlinks+0
	rel 694+4 t=16 "".Outlinks+0
	rel 709+4 t=16 "".DistGlobal+0
	rel 735+4 t=16 "".DistGlobal+-4
	rel 746+4 t=16 "".Num_threads+0
	rel 753+4 t=16 "".Num_nodes+0
	rel 787+4 t=16 "".NodesPerThread+0
	rel 805+4 t=16 type.string+0
	rel 820+4 t=16 ""..stmp_6+0
	rel 835+4 t=16 os.Stdout+0
	rel 842+4 t=16 go.itab.*os.File,io.Writer+0
	rel 887+4 t=8 fmt.Fprintln+0
	rel 901+4 t=16 "".Outlinks+0
	rel 979+4 t=8 strings.Fields+0
	rel 1032+4 t=8 strconv.Atoi+0
	rel 1087+4 t=8 strconv.Atoi+0
	rel 1118+4 t=16 "".Inlinks+0
	rel 1146+4 t=16 "".Edges+0
	rel 1190+4 t=8 "".func_Q+0
	rel 1219+4 t=8 runtime.panicIndex+0
	rel 1232+4 t=8 runtime.panicIndex+0
	rel 1242+4 t=8 runtime.panicIndex+0
	rel 1252+4 t=8 runtime.panicIndex+0
	rel 1259+4 t=8 runtime.panicIndex+0
	rel 1264+4 t=8 runtime.panicdivide+0
	rel 1274+4 t=8 runtime.panicIndex+0
	rel 1280+4 t=8 runtime.morestack_noctxt+0
go.cuinfo.packagename.main SDWARFINFO dupok size=0
	0x0000 6d 61 69 6e                                      main
go.info.dieseldist.ConvBool$abstract SDWARFINFO dupok size=32
	0x0000 04 64 69 65 73 65 6c 64 69 73 74 2e 43 6f 6e 76  .dieseldist.Conv
	0x0010 42 6f 6f 6c 00 01 01 11 78 00 00 00 00 00 00 00  Bool....x.......
	rel 0+0 t=24 type.bool+0
	rel 27+4 t=29 go.info.bool+0
go.info.dieseldist.StartTiming$abstract SDWARFINFO dupok size=27
	0x0000 04 64 69 65 73 65 6c 64 69 73 74 2e 53 74 61 72  .dieseldist.Star
	0x0010 74 54 69 6d 69 6e 67 00 01 01 00                 tTiming....
go.info.fmt.Println$abstract SDWARFINFO dupok size=42
	0x0000 04 66 6d 74 2e 50 72 69 6e 74 6c 6e 00 01 01 11  .fmt.Println....
	0x0010 61 00 00 00 00 00 00 11 6e 00 01 00 00 00 00 11  a.......n.......
	0x0020 65 72 72 00 01 00 00 00 00 00                    err.......
	rel 0+0 t=24 type.[]interface {}+0
	rel 0+0 t=24 type.error+0
	rel 0+0 t=24 type.int+0
	rel 19+4 t=29 go.info.[]interface {}+0
	rel 27+4 t=29 go.info.int+0
	rel 37+4 t=29 go.info.error+0
go.info.strings.Split$abstract SDWARFINFO dupok size=36
	0x0000 04 73 74 72 69 6e 67 73 2e 53 70 6c 69 74 00 01  .strings.Split..
	0x0010 01 11 73 00 00 00 00 00 00 11 73 65 70 00 00 00  ..s.......sep...
	0x0020 00 00 00 00                                      ....
	rel 0+0 t=24 type.string+0
	rel 21+4 t=29 go.info.string+0
	rel 31+4 t=29 go.info.string+0
go.loc.os.(*File).close SDWARFLOC dupok size=0
go.info.os.(*File).close SDWARFINFO dupok size=55
	0x0000 03 6f 73 2e 28 2a 46 69 6c 65 29 2e 63 6c 6f 73  .os.(*File).clos
	0x0010 65 00 00 00 00 00 00 00 00 00 00 00 00 00 00 00  e...............
	0x0020 00 00 01 9c 00 00 00 00 01 0f 7e 72 30 00 01 f0  ..........~r0...
	0x0030 01 00 00 00 00 00 00                             .......
	rel 0+0 t=24 type.*os.File+0
	rel 0+0 t=24 type.error+0
	rel 18+8 t=1 os.(*File).close+0
	rel 26+8 t=1 os.(*File).close+26
	rel 36+4 t=30 gofile..<autogenerated>+0
	rel 49+4 t=29 go.info.error+0
go.range.os.(*File).close SDWARFRANGE dupok size=0
go.debuglines.os.(*File).close SDWARFMISC dupok size=12
	0x0000 04 01 0f 06 41 06 af 04 01 03 00 01              ....A.......
go.loc."".max SDWARFLOC size=103
	0x0000 ff ff ff ff ff ff ff ff 00 00 00 00 00 00 00 00  ................
	0x0010 00 00 00 00 00 00 00 00 1b 00 00 00 00 00 00 00  ................
	0x0020 01 00 9c 00 00 00 00 00 00 00 00 00 00 00 00 00  ................
	0x0030 00 00 00 ff ff ff ff ff ff ff ff 00 00 00 00 00  ................
	0x0040 00 00 00 00 00 00 00 00 00 00 00 1b 00 00 00 00  ................
	0x0050 00 00 00 02 00 91 08 00 00 00 00 00 00 00 00 00  ................
	0x0060 00 00 00 00 00 00 00                             .......
	rel 8+8 t=1 "".max+0
	rel 59+8 t=1 "".max+0
go.info."".max SDWARFINFO size=72
	0x0000 03 6d 61 69 6e 2e 6d 61 78 00 00 00 00 00 00 00  .main.max.......
	0x0010 00 00 00 00 00 00 00 00 00 00 01 9c 00 00 00 00  ................
	0x0020 01 10 78 00 00 13 00 00 00 00 00 00 00 00 10 79  ..x............y
	0x0030 00 00 13 00 00 00 00 00 00 00 00 0f 7e 72 32 00  ............~r2.
	0x0040 01 13 00 00 00 00 00 00                          ........
	rel 0+0 t=24 type.int+0
	rel 10+8 t=1 "".max+0
	rel 18+8 t=1 "".max+27
	rel 28+4 t=30 gofile../home/vimuth/projects/parallely/diesel/src/bfs-dist/worker.go+0
	rel 38+4 t=29 go.info.int+0
	rel 42+4 t=29 go.loc."".max+0
	rel 51+4 t=29 go.info.int+0
	rel 55+4 t=29 go.loc."".max+51
	rel 66+4 t=29 go.info.int+0
go.range."".max SDWARFRANGE size=0
go.debuglines."".max SDWARFMISC size=21
	0x0000 04 02 03 0e 14 06 41 06 74 06 41 06 1b 06 41 04  ......A.t.A...A.
	0x0010 01 03 6a 06 01                                   ..j..
go.loc."".min SDWARFLOC size=103
	0x0000 ff ff ff ff ff ff ff ff 00 00 00 00 00 00 00 00  ................
	0x0010 00 00 00 00 00 00 00 00 1b 00 00 00 00 00 00 00  ................
	0x0020 01 00 9c 00 00 00 00 00 00 00 00 00 00 00 00 00  ................
	0x0030 00 00 00 ff ff ff ff ff ff ff ff 00 00 00 00 00  ................
	0x0040 00 00 00 00 00 00 00 00 00 00 00 1b 00 00 00 00  ................
	0x0050 00 00 00 02 00 91 08 00 00 00 00 00 00 00 00 00  ................
	0x0060 00 00 00 00 00 00 00                             .......
	rel 8+8 t=1 "".min+0
	rel 59+8 t=1 "".min+0
go.info."".min SDWARFINFO size=72
	0x0000 03 6d 61 69 6e 2e 6d 69 6e 00 00 00 00 00 00 00  .main.min.......
	0x0010 00 00 00 00 00 00 00 00 00 00 01 9c 00 00 00 00  ................
	0x0020 01 10 78 00 00 1b 00 00 00 00 00 00 00 00 10 79  ..x............y
	0x0030 00 00 1b 00 00 00 00 00 00 00 00 0f 7e 72 32 00  ............~r2.
	0x0040 01 1b 00 00 00 00 00 00                          ........
	rel 0+0 t=24 type.int+0
	rel 10+8 t=1 "".min+0
	rel 18+8 t=1 "".min+27
	rel 28+4 t=30 gofile../home/vimuth/projects/parallely/diesel/src/bfs-dist/worker.go+0
	rel 38+4 t=29 go.info.int+0
	rel 42+4 t=29 go.loc."".min+0
	rel 51+4 t=29 go.info.int+0
	rel 55+4 t=29 go.loc."".min+51
	rel 66+4 t=29 go.info.int+0
go.range."".min SDWARFRANGE size=0
go.debuglines."".min SDWARFMISC size=21
	0x0000 04 02 03 16 14 06 41 06 74 06 41 06 1b 06 41 04  ......A.t.A...A.
	0x0010 01 03 62 06 01                                   ..b..
go.loc."".convertToFloat SDWARFLOC size=51
	0x0000 ff ff ff ff ff ff ff ff 00 00 00 00 00 00 00 00  ................
	0x0010 00 00 00 00 00 00 00 00 14 00 00 00 00 00 00 00  ................
	0x0020 01 00 9c 00 00 00 00 00 00 00 00 00 00 00 00 00  ................
	0x0030 00 00 00                                         ...
	rel 8+8 t=1 "".convertToFloat+0
go.info."".convertToFloat SDWARFINFO size=70
	0x0000 03 6d 61 69 6e 2e 63 6f 6e 76 65 72 74 54 6f 46  .main.convertToF
	0x0010 6c 6f 61 74 00 00 00 00 00 00 00 00 00 00 00 00  loat............
	0x0020 00 00 00 00 00 01 9c 00 00 00 00 01 10 78 00 00  .............x..
	0x0030 23 00 00 00 00 00 00 00 00 0f 7e 72 31 00 01 23  #.........~r1..#
	0x0040 00 00 00 00 00 00                                ......
	rel 0+0 t=24 type.float64+0
	rel 0+0 t=24 type.int+0
	rel 21+8 t=1 "".convertToFloat+0
	rel 29+8 t=1 "".convertToFloat+20
	rel 39+4 t=30 gofile../home/vimuth/projects/parallely/diesel/src/bfs-dist/worker.go+0
	rel 49+4 t=29 go.info.int+0
	rel 53+4 t=29 go.loc."".convertToFloat+0
	rel 64+4 t=29 go.info.float64+0
go.range."".convertToFloat SDWARFRANGE size=0
go.debuglines."".convertToFloat SDWARFMISC size=13
	0x0000 04 02 03 1e 14 06 41 04 01 03 5d 06 01           ......A...]..
go.string."Ending thread : " SRODATA dupok size=16
	0x0000 45 6e 64 69 6e 67 20 74 68 72 65 61 64 20 3a 20  Ending thread : 
go.string."amqp://guest:guest@localhost:5672/" SRODATA dupok size=34
	0x0000 61 6d 71 70 3a 2f 2f 67 75 65 73 74 3a 67 75 65  amqp://guest:gue
	0x0010 73 74 40 6c 6f 63 61 6c 68 6f 73 74 3a 35 36 37  st@localhost:567
	0x0020 32 2f                                            2/
go.loc."".func_0 SDWARFLOC size=1130
	0x0000 ff ff ff ff ff ff ff ff 00 00 00 00 00 00 00 00  ................
	0x0010 4d 01 00 00 00 00 00 00 75 01 00 00 00 00 00 00  M.......u.......
	0x0020 01 00 51 50 02 00 00 00 00 00 00 93 02 00 00 00  ..QP............
	0x0030 00 00 00 04 00 91 d0 99 69 a5 02 00 00 00 00 00  ........i.......
	0x0040 00 f9 02 00 00 00 00 00 00 01 00 53 f9 02 00 00  ...........S....
	0x0050 00 00 00 00 15 03 00 00 00 00 00 00 04 00 91 d0  ................
	0x0060 99 69 16 04 00 00 00 00 00 00 33 04 00 00 00 00  .i........3.....
	0x0070 00 00 04 00 91 d0 99 69 00 00 00 00 00 00 00 00  .......i........
	0x0080 00 00 00 00 00 00 00 00 ff ff ff ff ff ff ff ff  ................
	0x0090 00 00 00 00 00 00 00 00 d2 00 00 00 00 00 00 00  ................
	0x00a0 f3 00 00 00 00 00 00 00 01 00 53 f3 00 00 00 00  ..........S.....
	0x00b0 00 00 00 3b 01 00 00 00 00 00 00 04 00 91 d8 99  ...;............
	0x00c0 69 59 01 00 00 00 00 00 00 68 01 00 00 00 00 00  iY.......h......
	0x00d0 00 01 00 55 68 01 00 00 00 00 00 00 70 01 00 00  ...Uh.......p...
	0x00e0 00 00 00 00 01 00 53 70 01 00 00 00 00 00 00 75  ......Sp.......u
	0x00f0 01 00 00 00 00 00 00 01 00 55 50 02 00 00 00 00  .........UP.....
	0x0100 00 00 93 02 00 00 00 00 00 00 04 00 91 d8 99 69  ...............i
	0x0110 b6 02 00 00 00 00 00 00 c6 02 00 00 00 00 00 00  ................
	0x0120 01 00 58 c6 02 00 00 00 00 00 00 f9 02 00 00 00  ..X.............
	0x0130 00 00 00 01 00 54 f9 02 00 00 00 00 00 00 10 03  .....T..........
	0x0140 00 00 00 00 00 00 04 00 91 d8 99 69 10 03 00 00  ...........i....
	0x0150 00 00 00 00 15 03 00 00 00 00 00 00 01 00 58 1e  ..............X.
	0x0160 04 00 00 00 00 00 00 33 04 00 00 00 00 00 00 04  .......3........
	0x0170 00 91 d8 99 69 00 00 00 00 00 00 00 00 00 00 00  ....i...........
	0x0180 00 00 00 00 00 ff ff ff ff ff ff ff ff 00 00 00  ................
	0x0190 00 00 00 00 00 94 00 00 00 00 00 00 00 33 04 00  .............3..
	0x01a0 00 00 00 00 00 04 00 91 f8 99 69 00 00 00 00 00  ..........i.....
	0x01b0 00 00 00 00 00 00 00 00 00 00 00 ff ff ff ff ff  ................
	0x01c0 ff ff ff 00 00 00 00 00 00 00 00 85 00 00 00 00  ................
	0x01d0 00 00 00 33 04 00 00 00 00 00 00 04 00 91 f8 8a  ...3............
	0x01e0 6e 00 00 00 00 00 00 00 00 00 00 00 00 00 00 00  n...............
	0x01f0 00 ff ff ff ff ff ff ff ff 00 00 00 00 00 00 00  ................
	0x0200 00 50 02 00 00 00 00 00 00 67 02 00 00 00 00 00  .P.......g......
	0x0210 00 01 00 53 00 00 00 00 00 00 00 00 00 00 00 00  ...S............
	0x0220 00 00 00 00 ff ff ff ff ff ff ff ff 00 00 00 00  ................
	0x0230 00 00 00 00 39 02 00 00 00 00 00 00 33 04 00 00  ....9.......3...
	0x0240 00 00 00 00 01 00 51 00 00 00 00 00 00 00 00 00  ......Q.........
	0x0250 00 00 00 00 00 00 00 ff ff ff ff ff ff ff ff 00  ................
	0x0260 00 00 00 00 00 00 00 5c 01 00 00 00 00 00 00 68  .......\.......h
	0x0270 01 00 00 00 00 00 00 01 00 53 ba 02 00 00 00 00  .........S......
	0x0280 00 00 c6 02 00 00 00 00 00 00 01 00 54 00 00 00  ............T...
	0x0290 00 00 00 00 00 00 00 00 00 00 00 00 00 ff ff ff  ................
	0x02a0 ff ff ff ff ff 00 00 00 00 00 00 00 00 50 02 00  .............P..
	0x02b0 00 00 00 00 00 67 02 00 00 00 00 00 00 01 00 50  .....g.........P
	0x02c0 06 03 00 00 00 00 00 00 10 03 00 00 00 00 00 00  ................
	0x02d0 01 00 50 00 00 00 00 00 00 00 00 00 00 00 00 00  ..P.............
	0x02e0 00 00 00 ff ff ff ff ff ff ff ff 00 00 00 00 00  ................
	0x02f0 00 00 00 d7 00 00 00 00 00 00 00 3b 01 00 00 00  ...........;....
	0x0300 00 00 00 04 00 91 c8 99 69 3f 01 00 00 00 00 00  ........i?......
	0x0310 00 75 01 00 00 00 00 00 00 01 00 54 00 00 00 00  .u.........T....
	0x0320 00 00 00 00 00 00 00 00 00 00 00 00 ff ff ff ff  ................
	0x0330 ff ff ff ff 00 00 00 00 00 00 00 00 ba 01 00 00  ................
	0x0340 00 00 00 00 15 03 00 00 00 00 00 00 04 00 91 e0  ................
	0x0350 99 69 15 03 00 00 00 00 00 00 47 03 00 00 00 00  .i........G.....
	0x0360 00 00 01 00 50 1e 04 00 00 00 00 00 00 33 04 00  ....P........3..
	0x0370 00 00 00 00 00 04 00 91 e0 99 69 00 00 00 00 00  ..........i.....
	0x0380 00 00 00 00 00 00 00 00 00 00 00 ff ff ff ff ff  ................
	0x0390 ff ff ff 00 00 00 00 00 00 00 00 ba 01 00 00 00  ................
	0x03a0 00 00 00 eb 01 00 00 00 00 00 00 01 00 50 00 00  .............P..
	0x03b0 00 00 00 00 00 00 00 00 00 00 00 00 00 00 ff ff  ................
	0x03c0 ff ff ff ff ff ff 00 00 00 00 00 00 00 00 97 02  ................
	0x03d0 00 00 00 00 00 00 f9 02 00 00 00 00 00 00 01 00  ................
	0x03e0 55 00 00 00 00 00 00 00 00 00 00 00 00 00 00 00  U...............
	0x03f0 00 ff ff ff ff ff ff ff ff 00 00 00 00 00 00 00  ................
	0x0400 00 39 02 00 00 00 00 00 00 74 02 00 00 00 00 00  .9.......t......
	0x0410 00 01 00 51 1e 04 00 00 00 00 00 00 33 04 00 00  ...Q........3...
	0x0420 00 00 00 00 01 00 51 00 00 00 00 00 00 00 00 00  ......Q.........
	0x0430 00 00 00 00 00 00 00 ff ff ff ff ff ff ff ff 00  ................
	0x0440 00 00 00 00 00 00 00 54 02 00 00 00 00 00 00 67  .......T.......g
	0x0450 02 00 00 00 00 00 00 01 00 54 00 00 00 00 00 00  .........T......
	0x0460 00 00 00 00 00 00 00 00 00 00                    ..........
	rel 8+8 t=1 "".func_0+0
	rel 144+8 t=1 "".func_0+0
	rel 397+8 t=1 "".func_0+0
	rel 451+8 t=1 "".func_0+0
	rel 505+8 t=1 "".func_0+0
	rel 556+8 t=1 "".func_0+0
	rel 607+8 t=1 "".func_0+0
	rel 677+8 t=1 "".func_0+0
	rel 747+8 t=1 "".func_0+0
	rel 820+8 t=1 "".func_0+0
	rel 915+8 t=1 "".func_0+0
	rel 966+8 t=1 "".func_0+0
	rel 1017+8 t=1 "".func_0+0
	rel 1087+8 t=1 "".func_0+0
go.info."".func_0 SDWARFINFO size=404
	0x0000 03 6d 61 69 6e 2e 66 75 6e 63 5f 30 00 00 00 00  .main.func_0....
	0x0010 00 00 00 00 00 00 00 00 00 00 00 00 00 01 9c 00  ................
	0x0020 00 00 00 01 0b 6d 79 73 74 61 72 74 00 34 00 00  .....mystart.4..
	0x0030 00 00 00 00 00 00 0b 6d 79 65 6e 64 00 35 00 00  .......myend.5..
	0x0040 00 00 00 00 00 00 0b 73 6c 69 63 65 00 32 00 00  .......slice.2..
	0x0050 00 00 00 00 00 00 0b 64 69 73 74 61 6e 63 65 00  .......distance.
	0x0060 31 00 00 00 00 00 00 00 00 0a 6d 79 5f 63 68 61  1.........my_cha
	0x0070 6e 5f 69 6e 64 65 78 00 2e 00 00 00 00 00 0b 6e  n_index........n
	0x0080 65 77 44 69 73 74 00 33 00 00 00 00 00 00 00 00  ewDist.3........
	0x0090 0a 69 00 36 00 00 00 00 00 0b 6a 00 37 00 00 00  .i.6......j.7...
	0x00a0 00 00 00 00 00 0b 6c 61 73 74 74 68 72 65 61 64  ......lastthread
	0x00b0 00 38 00 00 00 00 00 00 00 00 0b 6d 79 73 69 7a  .8.........mysiz
	0x00c0 65 00 39 00 00 00 00 00 00 00 00 15 00 00 00 00  e.9.............
	0x00d0 00 00 00 00 00 00 00 00 00 00 00 00 0b 71 00 3c  .............q.<
	0x00e0 00 00 00 00 00 00 00 00 00 14 00 00 00 00 0b 5f  ..............._
	0x00f0 5f 74 65 6d 70 5f 30 00 48 00 00 00 00 00 00 00  _temp_0.H.......
	0x0100 00 14 00 00 00 00 0b 71 00 49 00 00 00 00 00 00  .......q.I......
	0x0110 00 00 00 14 00 00 00 00 0b 71 00 4d 00 00 00 00  .........q.M....
	0x0120 00 00 00 00 14 00 00 00 00 0b 5f 5f 74 65 6d 70  ..........__temp
	0x0130 5f 31 00 57 00 00 00 00 00 00 00 00 14 00 00 00  _1.W............
	0x0140 00 0b 5f 74 65 6d 70 5f 69 6e 64 65 78 5f 32 00  .._temp_index_2.
	0x0150 5a 00 00 00 00 00 00 00 00 00 00 00 00 07 00 00  Z...............
	0x0160 00 00 00 00 00 00 00 00 00 00 47 00 06 00 00 00  ..........G.....
	0x0170 00 00 00 00 00 00 00 00 00 00 00 00 00 00 00 00  ................
	0x0180 00 00 00 00 00 66 12 00 00 00 00 00 12 00 00 00  .....f..........
	0x0190 00 00 00 00                                      ....
	rel 0+0 t=24 type.*int+0
	rel 0+0 t=24 type.[10000]int+0
	rel 0+0 t=24 type.[2]interface {}+0
	rel 0+0 t=24 type.[36682]int+0
	rel 0+0 t=24 type.int+0
	rel 13+8 t=1 "".func_0+0
	rel 21+8 t=1 "".func_0+1075
	rel 31+4 t=30 gofile../home/vimuth/projects/parallely/diesel/src/bfs-dist/worker.go+0
	rel 46+4 t=29 go.info.int+0
	rel 50+4 t=29 go.loc."".func_0+0
	rel 62+4 t=29 go.info.int+0
	rel 66+4 t=29 go.loc."".func_0+136
	rel 78+4 t=29 go.info.[10000]int+0
	rel 82+4 t=29 go.loc."".func_0+389
	rel 97+4 t=29 go.info.[36682]int+0
	rel 101+4 t=29 go.loc."".func_0+443
	rel 121+4 t=29 go.info.int+0
	rel 136+4 t=29 go.info.int+0
	rel 140+4 t=29 go.loc."".func_0+497
	rel 148+4 t=29 go.info.int+0
	rel 157+4 t=29 go.info.int+0
	rel 161+4 t=29 go.loc."".func_0+548
	rel 178+4 t=29 go.info.int+0
	rel 182+4 t=29 go.loc."".func_0+599
	rel 195+4 t=29 go.info.int+0
	rel 199+4 t=29 go.loc."".func_0+669
	rel 204+8 t=1 "".func_0+179
	rel 212+8 t=1 "".func_0+373
	rel 224+4 t=29 go.info.int+0
	rel 228+4 t=29 go.loc."".func_0+739
	rel 234+4 t=29 go.range."".func_0+0
	rel 249+4 t=29 go.info.int+0
	rel 253+4 t=29 go.loc."".func_0+812
	rel 258+4 t=29 go.range."".func_0+64
	rel 266+4 t=29 go.info.int+0
	rel 270+4 t=29 go.loc."".func_0+907
	rel 276+4 t=29 go.range."".func_0+144
	rel 284+4 t=29 go.info.int+0
	rel 288+4 t=29 go.loc."".func_0+958
	rel 293+4 t=29 go.range."".func_0+224
	rel 308+4 t=29 go.info.int+0
	rel 312+4 t=29 go.loc."".func_0+1009
	rel 317+4 t=29 go.range."".func_0+304
	rel 337+4 t=29 go.info.int+0
	rel 341+4 t=29 go.loc."".func_0+1079
	rel 350+4 t=29 go.info.dieseldist.StartTiming$abstract+0
	rel 354+4 t=29 go.range."".func_0+384
	rel 358+4 t=30 gofile../home/vimuth/projects/parallely/diesel/src/bfs-dist/worker.go+0
	rel 365+4 t=29 go.info.fmt.Println$abstract+0
	rel 369+8 t=1 "".func_0+946
	rel 377+8 t=1 "".func_0+1005
	rel 385+4 t=30 gofile../home/vimuth/projects/parallely/diesel/src/bfs-dist/worker.go+0
	rel 391+4 t=29 go.info.fmt.Println$abstract+15
	rel 397+4 t=29 go.info.fmt.Println$abstract+23
go.range."".func_0 SDWARFRANGE size=448
	0x0000 ff ff ff ff ff ff ff ff 00 00 00 00 00 00 00 00  ................
	0x0010 b1 01 00 00 00 00 00 00 42 03 00 00 00 00 00 00  ........B.......
	0x0020 0e 04 00 00 00 00 00 00 29 04 00 00 00 00 00 00  ........).......
	0x0030 00 00 00 00 00 00 00 00 00 00 00 00 00 00 00 00  ................
	0x0040 ff ff ff ff ff ff ff ff 00 00 00 00 00 00 00 00  ................
	0x0050 b1 01 00 00 00 00 00 00 f4 01 00 00 00 00 00 00  ................
	0x0060 f9 01 00 00 00 00 00 00 0b 02 00 00 00 00 00 00  ................
	0x0070 20 03 00 00 00 00 00 00 42 03 00 00 00 00 00 00   .......B.......
	0x0080 00 00 00 00 00 00 00 00 00 00 00 00 00 00 00 00  ................
	0x0090 ff ff ff ff ff ff ff ff 00 00 00 00 00 00 00 00  ................
	0x00a0 0b 02 00 00 00 00 00 00 62 02 00 00 00 00 00 00  ........b.......
	0x00b0 67 02 00 00 00 00 00 00 12 03 00 00 00 00 00 00  g...............
	0x00c0 0e 04 00 00 00 00 00 00 29 04 00 00 00 00 00 00  ........).......
	0x00d0 00 00 00 00 00 00 00 00 00 00 00 00 00 00 00 00  ................
	0x00e0 ff ff ff ff ff ff ff ff 00 00 00 00 00 00 00 00  ................
	0x00f0 2a 02 00 00 00 00 00 00 62 02 00 00 00 00 00 00  *.......b.......
	0x0100 08 03 00 00 00 00 00 00 0d 03 00 00 00 00 00 00  ................
	0x0110 0e 04 00 00 00 00 00 00 29 04 00 00 00 00 00 00  ........).......
	0x0120 00 00 00 00 00 00 00 00 00 00 00 00 00 00 00 00  ................
	0x0130 ff ff ff ff ff ff ff ff 00 00 00 00 00 00 00 00  ................
	0x0140 2a 02 00 00 00 00 00 00 39 02 00 00 00 00 00 00  *.......9.......
	0x0150 3e 02 00 00 00 00 00 00 62 02 00 00 00 00 00 00  >.......b.......
	0x0160 0e 04 00 00 00 00 00 00 29 04 00 00 00 00 00 00  ........).......
	0x0170 00 00 00 00 00 00 00 00 00 00 00 00 00 00 00 00  ................
	0x0180 ff ff ff ff ff ff ff ff 00 00 00 00 00 00 00 00  ................
	0x0190 75 01 00 00 00 00 00 00 ac 01 00 00 00 00 00 00  u...............
	0x01a0 fd 03 00 00 00 00 00 00 0e 04 00 00 00 00 00 00  ................
	0x01b0 00 00 00 00 00 00 00 00 00 00 00 00 00 00 00 00  ................
	rel 8+8 t=1 "".func_0+0
	rel 72+8 t=1 "".func_0+0
	rel 152+8 t=1 "".func_0+0
	rel 232+8 t=1 "".func_0+0
	rel 312+8 t=1 "".func_0+0
	rel 392+8 t=1 "".func_0+0
go.debuglines."".func_0 SDWARFMISC size=244
	0x0000 04 02 03 24 14 0a 02 19 ff f6 06 55 06 08 4c 06  ...$.......U..L.
	0x0010 55 06 6e 06 5f 06 74 06 41 06 03 03 64 06 5f 06  U.n._.t.A...d._.
	0x0020 a7 06 55 08 03 03 46 06 40 06 37 06 9b 42 06 41  ..U...F.@.7..B.A
	0x0030 06 f5 06 03 7c 3d 06 c3 06 2d 06 26 06 55 66 39  ....|=...-.&.Uf9
	0x0040 06 54 06 2d 06 38 06 2d 6a 06 2e 06 2d 06 24 06  .T.-.8.-j...-.$.
	0x0050 55 44 29 04 03 06 03 11 46 06 41 04 02 06 02 1a  UD).....F.A.....
	0x0060 03 75 fb 06 43 06 6a 06 5f 06 08 b8 06 41 36 42  .u..C.j._....A6B
	0x0070 06 91 06 2d 06 27 06 55 03 0e ff 06 88 03 7f 29  ...-.'.U.......)
	0x0080 06 2d 06 25 06 55 06 7e 38 06 55 03 71 51 46 06  .-.%.U.~8.U.qQF.
	0x0090 c3 06 2d 06 4e 06 55 70 06 38 06 55 06 88 06 2d  ..-.N.Up.8.U...-
	0x00a0 6a 06 38 06 2d 06 24 06 58 06 40 06 41 06 08 ba  j.8.-.$.X.@.A...
	0x00b0 06 41 75 3f 29 06 03 7b 1f 06 55 06 56 06 55 06  .Au?)..{..U.V.U.
	0x00c0 08 03 13 32 42 06 55 06 b2 42 06 2d 04 04 06 02  ...2B.U..B.-....
	0x00d0 35 03 a7 01 fa 06 55 04 02 06 02 1c 03 d8 7e fb  5.....U.......~.
	0x00e0 04 03 06 03 74 ab 04 02 be 8f 06 91 03 55 15 04  ....t........U..
	0x00f0 01 03 57 01                                      ..W.
runtime.nilinterequal·f SRODATA dupok size=8
	0x0000 00 00 00 00 00 00 00 00                          ........
	rel 0+8 t=1 runtime.nilinterequal+0
runtime.memequal64·f SRODATA dupok size=8
	0x0000 00 00 00 00 00 00 00 00                          ........
	rel 0+8 t=1 runtime.memequal64+0
runtime.gcbits.01 SRODATA dupok size=1
	0x0000 01                                               .
type..namedata.*interface {}- SRODATA dupok size=16
	0x0000 00 00 0d 2a 69 6e 74 65 72 66 61 63 65 20 7b 7d  ...*interface {}
type.*interface {} SRODATA dupok size=56
	0x0000 08 00 00 00 00 00 00 00 08 00 00 00 00 00 00 00  ................
	0x0010 4f 0f 96 9d 08 08 08 36 00 00 00 00 00 00 00 00  O......6........
	0x0020 00 00 00 00 00 00 00 00 00 00 00 00 00 00 00 00  ................
	0x0030 00 00 00 00 00 00 00 00                          ........
	rel 24+8 t=1 runtime.memequal64·f+0
	rel 32+8 t=1 runtime.gcbits.01+0
	rel 40+4 t=5 type..namedata.*interface {}-+0
	rel 48+8 t=1 type.interface {}+0
runtime.gcbits.02 SRODATA dupok size=1
	0x0000 02                                               .
type.interface {} SRODATA dupok size=80
	0x0000 10 00 00 00 00 00 00 00 10 00 00 00 00 00 00 00  ................
	0x0010 e7 57 a0 18 02 08 08 14 00 00 00 00 00 00 00 00  .W..............
	0x0020 00 00 00 00 00 00 00 00 00 00 00 00 00 00 00 00  ................
	0x0030 00 00 00 00 00 00 00 00 00 00 00 00 00 00 00 00  ................
	0x0040 00 00 00 00 00 00 00 00 00 00 00 00 00 00 00 00  ................
	rel 24+8 t=1 runtime.nilinterequal·f+0
	rel 32+8 t=1 runtime.gcbits.02+0
	rel 40+4 t=5 type..namedata.*interface {}-+0
	rel 44+4 t=6 type.*interface {}+0
	rel 56+8 t=1 type.interface {}+80
type..namedata.*[]interface {}- SRODATA dupok size=18
	0x0000 00 00 0f 2a 5b 5d 69 6e 74 65 72 66 61 63 65 20  ...*[]interface 
	0x0010 7b 7d                                            {}
type.*[]interface {} SRODATA dupok size=56
	0x0000 08 00 00 00 00 00 00 00 08 00 00 00 00 00 00 00  ................
	0x0010 f3 04 9a e7 08 08 08 36 00 00 00 00 00 00 00 00  .......6........
	0x0020 00 00 00 00 00 00 00 00 00 00 00 00 00 00 00 00  ................
	0x0030 00 00 00 00 00 00 00 00                          ........
	rel 24+8 t=1 runtime.memequal64·f+0
	rel 32+8 t=1 runtime.gcbits.01+0
	rel 40+4 t=5 type..namedata.*[]interface {}-+0
	rel 48+8 t=1 type.[]interface {}+0
type.[]interface {} SRODATA dupok size=56
	0x0000 18 00 00 00 00 00 00 00 08 00 00 00 00 00 00 00  ................
	0x0010 70 93 ea 2f 02 08 08 17 00 00 00 00 00 00 00 00  p../............
	0x0020 00 00 00 00 00 00 00 00 00 00 00 00 00 00 00 00  ................
	0x0030 00 00 00 00 00 00 00 00                          ........
	rel 32+8 t=1 runtime.gcbits.01+0
	rel 40+4 t=5 type..namedata.*[]interface {}-+0
	rel 44+4 t=6 type.*[]interface {}+0
	rel 48+8 t=1 type.interface {}+0
go.loc.type..eq.[2]interface {} SDWARFLOC dupok size=154
	0x0000 ff ff ff ff ff ff ff ff 00 00 00 00 00 00 00 00  ................
	0x0010 48 00 00 00 00 00 00 00 55 00 00 00 00 00 00 00  H.......U.......
	0x0020 01 00 51 00 00 00 00 00 00 00 00 00 00 00 00 00  ..Q.............
	0x0030 00 00 00 ff ff ff ff ff ff ff ff 00 00 00 00 00  ................
	0x0040 00 00 00 00 00 00 00 00 00 00 00 b3 00 00 00 00  ................
	0x0050 00 00 00 01 00 9c 00 00 00 00 00 00 00 00 00 00  ................
	0x0060 00 00 00 00 00 00 ff ff ff ff ff ff ff ff 00 00  ................
	0x0070 00 00 00 00 00 00 00 00 00 00 00 00 00 00 b3 00  ................
	0x0080 00 00 00 00 00 00 02 00 91 08 00 00 00 00 00 00  ................
	0x0090 00 00 00 00 00 00 00 00 00 00                    ..........
	rel 8+8 t=1 type..eq.[2]interface {}+0
	rel 59+8 t=1 type..eq.[2]interface {}+0
	rel 110+8 t=1 type..eq.[2]interface {}+0
go.info.type..eq.[2]interface {} SDWARFINFO dupok size=100
	0x0000 03 74 79 70 65 2e 2e 65 71 2e 5b 32 5d 69 6e 74  .type..eq.[2]int
	0x0010 65 72 66 61 63 65 20 7b 7d 00 00 00 00 00 00 00  erface {}.......
	0x0020 00 00 00 00 00 00 00 00 00 00 01 9c 00 00 00 00  ................
	0x0030 01 0b 69 00 01 00 00 00 00 00 00 00 00 10 70 00  ..i...........p.
	0x0040 00 01 00 00 00 00 00 00 00 00 10 71 00 00 01 00  ...........q....
	0x0050 00 00 00 00 00 00 00 0f 7e 72 32 00 01 01 00 00  ........~r2.....
	0x0060 00 00 00 00                                      ....
	rel 0+0 t=24 type.*[2]interface {}+0
	rel 0+0 t=24 type.bool+0
	rel 0+0 t=24 type.int+0
	rel 26+8 t=1 type..eq.[2]interface {}+0
	rel 34+8 t=1 type..eq.[2]interface {}+179
	rel 44+4 t=30 gofile..<autogenerated>+0
	rel 53+4 t=29 go.info.int+0
	rel 57+4 t=29 go.loc.type..eq.[2]interface {}+0
	rel 66+4 t=29 go.info.*[2]interface {}+0
	rel 70+4 t=29 go.loc.type..eq.[2]interface {}+51
	rel 79+4 t=29 go.info.*[2]interface {}+0
	rel 83+4 t=29 go.loc.type..eq.[2]interface {}+102
	rel 94+4 t=29 go.info.bool+0
go.range.type..eq.[2]interface {} SDWARFRANGE dupok size=0
go.debuglines.type..eq.[2]interface {} SDWARFMISC dupok size=29
	0x0000 04 01 0f 0a cd 06 cd 06 08 73 06 37 06 02 27 ff  .........s.7..'.
	0x0010 06 41 06 73 06 41 06 73 04 01 03 00 01           .A.s.A.s.....
type..eqfunc.[2]interface {} SRODATA dupok size=8
	0x0000 00 00 00 00 00 00 00 00                          ........
	rel 0+8 t=1 type..eq.[2]interface {}+0
type..namedata.*[2]interface {}- SRODATA dupok size=19
	0x0000 00 00 10 2a 5b 32 5d 69 6e 74 65 72 66 61 63 65  ...*[2]interface
	0x0010 20 7b 7d                                          {}
type.*[2]interface {} SRODATA dupok size=56
	0x0000 08 00 00 00 00 00 00 00 08 00 00 00 00 00 00 00  ................
	0x0010 be 73 2d 71 08 08 08 36 00 00 00 00 00 00 00 00  .s-q...6........
	0x0020 00 00 00 00 00 00 00 00 00 00 00 00 00 00 00 00  ................
	0x0030 00 00 00 00 00 00 00 00                          ........
	rel 24+8 t=1 runtime.memequal64·f+0
	rel 32+8 t=1 runtime.gcbits.01+0
	rel 40+4 t=5 type..namedata.*[2]interface {}-+0
	rel 48+8 t=1 type.[2]interface {}+0
runtime.gcbits.0a SRODATA dupok size=1
	0x0000 0a                                               .
type.[2]interface {} SRODATA dupok size=72
	0x0000 20 00 00 00 00 00 00 00 20 00 00 00 00 00 00 00   ....... .......
	0x0010 2c 59 a4 f1 02 08 08 11 00 00 00 00 00 00 00 00  ,Y..............
	0x0020 00 00 00 00 00 00 00 00 00 00 00 00 00 00 00 00  ................
	0x0030 00 00 00 00 00 00 00 00 00 00 00 00 00 00 00 00  ................
	0x0040 02 00 00 00 00 00 00 00                          ........
	rel 24+8 t=1 type..eqfunc.[2]interface {}+0
	rel 32+8 t=1 runtime.gcbits.0a+0
	rel 40+4 t=5 type..namedata.*[2]interface {}-+0
	rel 44+4 t=6 type.*[2]interface {}+0
	rel 48+8 t=1 type.interface {}+0
	rel 56+8 t=1 type.[]interface {}+0
go.loc."".func_Q SDWARFLOC size=1604
	0x0000 ff ff ff ff ff ff ff ff 00 00 00 00 00 00 00 00  ................
	0x0010 d3 00 00 00 00 00 00 00 7f 03 00 00 00 00 00 00  ................
	0x0020 04 00 91 90 a5 57 00 00 00 00 00 00 00 00 00 00  .....W..........
	0x0030 00 00 00 00 00 00 ff ff ff ff ff ff ff ff 00 00  ................
	0x0040 00 00 00 00 00 00 dc 00 00 00 00 00 00 00 7f 03  ................
	0x0050 00 00 00 00 00 00 04 00 91 98 a5 57 00 00 00 00  ...........W....
	0x0060 00 00 00 00 00 00 00 00 00 00 00 00 ff ff ff ff  ................
	0x0070 ff ff ff ff 00 00 00 00 00 00 00 00 c2 00 00 00  ................
	0x0080 00 00 00 00 7f 03 00 00 00 00 00 00 04 00 91 a8  ................
	0x0090 a5 57 00 00 00 00 00 00 00 00 00 00 00 00 00 00  .W..............
	0x00a0 00 00 ff ff ff ff ff ff ff ff 00 00 00 00 00 00  ................
	0x00b0 00 00 a3 00 00 00 00 00 00 00 7f 03 00 00 00 00  ................
	0x00c0 00 00 04 00 91 a8 96 5c 00 00 00 00 00 00 00 00  .......\........
	0x00d0 00 00 00 00 00 00 00 00 ff ff ff ff ff ff ff ff  ................
	0x00e0 00 00 00 00 00 00 00 00 b5 00 00 00 00 00 00 00  ................
	0x00f0 7f 03 00 00 00 00 00 00 04 00 91 f8 8a 6e 00 00  .............n..
	0x0100 00 00 00 00 00 00 00 00 00 00 00 00 00 00 ff ff  ................
	0x0110 ff ff ff ff ff ff 00 00 00 00 00 00 00 00 93 00  ................
	0x0120 00 00 00 00 00 00 aa 00 00 00 00 00 00 00 01 00  ................
	0x0130 50 aa 00 00 00 00 00 00 00 7f 03 00 00 00 00 00  P...............
	0x0140 00 02 00 91 48 00 00 00 00 00 00 00 00 00 00 00  ....H...........
	0x0150 00 00 00 00 00 ff ff ff ff ff ff ff ff 00 00 00  ................
	0x0160 00 00 00 00 00 00 00 00 00 00 00 00 00 7f 03 00  ................
	0x0170 00 00 00 00 00 01 00 9c 00 00 00 00 00 00 00 00  ................
	0x0180 00 00 00 00 00 00 00 00 ff ff ff ff ff ff ff ff  ................
	0x0190 00 00 00 00 00 00 00 00 7f 01 00 00 00 00 00 00  ................
	0x01a0 8e 01 00 00 00 00 00 00 01 00 55 f7 01 00 00 00  ..........U.....
	0x01b0 00 00 00 01 02 00 00 00 00 00 00 01 00 55 00 00  .............U..
	0x01c0 00 00 00 00 00 00 00 00 00 00 00 00 00 00 ff ff  ................
	0x01d0 ff ff ff ff ff ff 00 00 00 00 00 00 00 00 6d 01  ..............m.
	0x01e0 00 00 00 00 00 00 7b 01 00 00 00 00 00 00 01 00  ......{.........
	0x01f0 59 00 00 00 00 00 00 00 00 00 00 00 00 00 00 00  Y...............
	0x0200 00 ff ff ff ff ff ff ff ff 00 00 00 00 00 00 00  ................
	0x0210 00 82 01 00 00 00 00 00 00 7f 03 00 00 00 00 00  ................
	0x0220 00 01 00 58 00 00 00 00 00 00 00 00 00 00 00 00  ...X............
	0x0230 00 00 00 00 ff ff ff ff ff ff ff ff 00 00 00 00  ................
	0x0240 00 00 00 00 a2 01 00 00 00 00 00 00 b0 01 00 00  ................
	0x0250 00 00 00 00 01 00 55 00 00 00 00 00 00 00 00 00  ......U.........
	0x0260 00 00 00 00 00 00 00 ff ff ff ff ff ff ff ff 00  ................
	0x0270 00 00 00 00 00 00 00 b0 01 00 00 00 00 00 00 01  ................
	0x0280 02 00 00 00 00 00 00 01 00 54 50 03 00 00 00 00  .........TP.....
	0x0290 00 00 6a 03 00 00 00 00 00 00 01 00 54 00 00 00  ..j.........T...
	0x02a0 00 00 00 00 00 00 00 00 00 00 00 00 00 ff ff ff  ................
	0x02b0 ff ff ff ff ff 00 00 00 00 00 00 00 00 cd 01 00  ................
	0x02c0 00 00 00 00 00 7f 03 00 00 00 00 00 00 01 00 51  ...............Q
	0x02d0 00 00 00 00 00 00 00 00 00 00 00 00 00 00 00 00  ................
	0x02e0 ff ff ff ff ff ff ff ff 00 00 00 00 00 00 00 00  ................
	0x02f0 b0 01 00 00 00 00 00 00 c0 01 00 00 00 00 00 00  ................
	0x0300 01 00 53 da 01 00 00 00 00 00 00 01 02 00 00 00  ..S.............
	0x0310 00 00 00 01 00 53 50 03 00 00 00 00 00 00 7f 03  .....SP.........
	0x0320 00 00 00 00 00 00 01 00 53 00 00 00 00 00 00 00  ........S.......
	0x0330 00 00 00 00 00 00 00 00 00 ff ff ff ff ff ff ff  ................
	0x0340 ff 00 00 00 00 00 00 00 00 61 01 00 00 00 00 00  .........a......
	0x0350 00 69 01 00 00 00 00 00 00 01 00 59 82 01 00 00  .i.........Y....
	0x0360 00 00 00 00 8e 01 00 00 00 00 00 00 01 00 55 00  ..............U.
	0x0370 00 00 00 00 00 00 00 00 00 00 00 00 00 00 00 ff  ................
	0x0380 ff ff ff ff ff ff ff 00 00 00 00 00 00 00 00 b0  ................
	0x0390 01 00 00 00 00 00 00 01 02 00 00 00 00 00 00 01  ................
	0x03a0 00 50 88 02 00 00 00 00 00 00 9f 02 00 00 00 00  .P..............
	0x03b0 00 00 01 00 50 00 00 00 00 00 00 00 00 00 00 00  ....P...........
	0x03c0 00 00 00 00 00 ff ff ff ff ff ff ff ff 00 00 00  ................
	0x03d0 00 00 00 00 00 00 00 00 00 00 00 00 00 7f 03 00  ................
	0x03e0 00 00 00 00 00 01 00 9c 00 00 00 00 00 00 00 00  ................
	0x03f0 00 00 00 00 00 00 00 00 ff ff ff ff ff ff ff ff  ................
	0x0400 00 00 00 00 00 00 00 00 b0 01 00 00 00 00 00 00  ................
	0x0410 3a 02 00 00 00 00 00 00 04 00 91 a0 a5 57 3a 02  :............W:.
	0x0420 00 00 00 00 00 00 4d 02 00 00 00 00 00 00 01 00  ......M.........
	0x0430 50 4d 02 00 00 00 00 00 00 9f 02 00 00 00 00 00  PM..............
	0x0440 00 04 00 91 a0 a5 57 50 03 00 00 00 00 00 00 7f  ......WP........
	0x0450 03 00 00 00 00 00 00 04 00 91 a0 a5 57 00 00 00  ............W...
	0x0460 00 00 00 00 00 00 00 00 00 00 00 00 00 ff ff ff  ................
	0x0470 ff ff ff ff ff 00 00 00 00 00 00 00 00 b0 01 00  ................
	0x0480 00 00 00 00 00 c4 01 00 00 00 00 00 00 01 00 51  ...............Q
	0x0490 cd 01 00 00 00 00 00 00 32 02 00 00 00 00 00 00  ........2.......
	0x04a0 01 00 51 50 03 00 00 00 00 00 00 7f 03 00 00 00  ..QP............
	0x04b0 00 00 00 01 00 51 00 00 00 00 00 00 00 00 00 00  .....Q..........
	0x04c0 00 00 00 00 00 00 ff ff ff ff ff ff ff ff 00 00  ................
	0x04d0 00 00 00 00 00 00 b0 01 00 00 00 00 00 00 c0 01  ................
	0x04e0 00 00 00 00 00 00 01 00 53 da 01 00 00 00 00 00  ........S.......
	0x04f0 00 01 02 00 00 00 00 00 00 01 00 53 50 03 00 00  ...........SP...
	0x0500 00 00 00 00 7f 03 00 00 00 00 00 00 01 00 53 00  ..............S.
	0x0510 00 00 00 00 00 00 00 00 00 00 00 00 00 00 00 ff  ................
	0x0520 ff ff ff ff ff ff ff 00 00 00 00 00 00 00 00 b0  ................
	0x0530 01 00 00 00 00 00 00 c0 01 00 00 00 00 00 00 01  ................
	0x0540 00 53 da 01 00 00 00 00 00 00 01 02 00 00 00 00  .S..............
	0x0550 00 00 01 00 53 50 03 00 00 00 00 00 00 7f 03 00  ....SP..........
	0x0560 00 00 00 00 00 01 00 53 00 00 00 00 00 00 00 00  .......S........
	0x0570 00 00 00 00 00 00 00 00 ff ff ff ff ff ff ff ff  ................
	0x0580 00 00 00 00 00 00 00 00 82 01 00 00 00 00 00 00  ................
	0x0590 6a 03 00 00 00 00 00 00 01 00 58 00 00 00 00 00  j.........X.....
	0x05a0 00 00 00 00 00 00 00 00 00 00 00 ff ff ff ff ff  ................
	0x05b0 ff ff ff 00 00 00 00 00 00 00 00 91 01 00 00 00  ................
	0x05c0 00 00 00 a2 01 00 00 00 00 00 00 01 00 55 00 00  .............U..
	0x05d0 00 00 00 00 00 00 00 00 00 00 00 00 00 00 ff ff  ................
	0x05e0 ff ff ff ff ff ff 00 00 00 00 00 00 00 00 a2 01  ................
	0x05f0 00 00 00 00 00 00 b0 01 00 00 00 00 00 00 01 00  ................
	0x0600 55 00 00 00 00 00 00 00 00 00 00 00 00 00 00 00  U...............
	0x0610 00 ff ff ff ff ff ff ff ff 00 00 00 00 00 00 00  ................
	0x0620 00 6d 01 00 00 00 00 00 00 7b 01 00 00 00 00 00  .m.......{......
	0x0630 00 01 00 59 00 00 00 00 00 00 00 00 00 00 00 00  ...Y............
	0x0640 00 00 00 00                                      ....
	rel 8+8 t=1 "".func_Q+0
	rel 62+8 t=1 "".func_Q+0
	rel 116+8 t=1 "".func_Q+0
	rel 170+8 t=1 "".func_Q+0
	rel 224+8 t=1 "".func_Q+0
	rel 278+8 t=1 "".func_Q+0
	rel 349+8 t=1 "".func_Q+0
	rel 400+8 t=1 "".func_Q+0
	rel 470+8 t=1 "".func_Q+0
	rel 521+8 t=1 "".func_Q+0
	rel 572+8 t=1 "".func_Q+0
	rel 623+8 t=1 "".func_Q+0
	rel 693+8 t=1 "".func_Q+0
	rel 744+8 t=1 "".func_Q+0
	rel 833+8 t=1 "".func_Q+0
	rel 903+8 t=1 "".func_Q+0
	rel 973+8 t=1 "".func_Q+0
	rel 1024+8 t=1 "".func_Q+0
	rel 1141+8 t=1 "".func_Q+0
	rel 1230+8 t=1 "".func_Q+0
	rel 1319+8 t=1 "".func_Q+0
	rel 1408+8 t=1 "".func_Q+0
	rel 1459+8 t=1 "".func_Q+0
	rel 1510+8 t=1 "".func_Q+0
	rel 1561+8 t=1 "".func_Q+0
go.info."".func_Q SDWARFINFO size=631
	0x0000 03 6d 61 69 6e 2e 66 75 6e 63 5f 51 00 00 00 00  .main.func_Q....
	0x0010 00 00 00 00 00 00 00 00 00 00 00 00 00 01 9c 00  ................
	0x0020 00 00 00 01 0b 6d 79 73 74 61 72 74 00 7a 00 00  .....mystart.z..
	0x0030 00 00 00 00 00 00 0b 6d 79 65 6e 64 00 7b 00 00  .......myend.{..
	0x0040 00 00 00 00 00 00 0b 6e 65 77 44 69 73 74 61 6e  .......newDistan
	0x0050 63 65 00 74 00 00 00 00 00 00 00 00 0b 69 6e 6c  ce.t.........inl
	0x0060 69 6e 6b 73 00 71 00 00 00 00 00 00 00 00 0b 64  inks.q.........d
	0x0070 69 73 74 61 6e 63 65 73 00 72 00 00 00 00 00 00  istances.r......
	0x0080 00 00 0b 26 65 64 67 65 73 00 70 00 00 00 00 00  ...&edges.p.....
	0x0090 00 00 00 0a 6d 79 5f 63 68 61 6e 5f 69 6e 64 65  ....my_chan_inde
	0x00a0 78 00 6c 00 00 00 00 00 0b 71 00 6f 00 00 00 00  x.l......q.o....
	0x00b0 00 00 00 00 0b 64 69 73 74 61 6e 63 65 00 73 00  .....distance.s.
	0x00c0 00 00 00 00 00 00 00 0b 63 6f 6e 64 69 74 69 6f  ........conditio
	0x00d0 6e 00 75 00 00 00 00 00 00 00 00 0b 69 6e 6c 69  n.u.........inli
	0x00e0 6e 6b 00 76 00 00 00 00 00 00 00 00 0b 6e 65 69  nk.v.........nei
	0x00f0 67 68 62 6f 72 00 77 00 00 00 00 00 00 00 00 0b  ghbor.w.........
	0x0100 6e 6f 64 65 49 6e 6c 69 6e 6b 73 00 78 00 00 00  nodeInlinks.x...
	0x0110 00 00 00 00 00 0b 69 00 79 00 00 00 00 00 00 00  ......i.y.......
	0x0120 00 0b 63 75 72 00 7c 00 00 00 00 00 00 00 00 0b  ..cur.|.........
	0x0130 74 65 6d 70 00 7d 00 00 00 00 00 00 00 00 0a 74  temp.}.........t
	0x0140 65 6d 70 31 00 7e 00 00 00 00 00 0a 74 65 6d 70  emp1.~......temp
	0x0150 32 00 7f 00 00 00 00 00 0b 6d 79 73 69 7a 65 00  2........mysize.
	0x0160 80 01 00 00 00 00 00 00 00 00 10 74 69 64 00 00  ...........tid..
	0x0170 68 00 00 00 00 00 00 00 00 14 00 00 00 00 0b 5f  h.............._
	0x0180 5f 74 65 6d 70 5f 32 00 85 01 00 00 00 00 00 00  _temp_2.........
	0x0190 00 00 14 00 00 00 00 0b 5f 5f 74 65 6d 70 5f 33  ........__temp_3
	0x01a0 00 89 01 00 00 00 00 00 00 00 00 14 00 00 00 00  ................
	0x01b0 0b 5f 74 65 6d 70 5f 69 6e 64 65 78 5f 31 00 8b  ._temp_index_1..
	0x01c0 01 00 00 00 00 00 00 00 00 0b 5f 74 65 6d 70 5f  .........._temp_
	0x01d0 69 6e 64 65 78 5f 32 00 8d 01 00 00 00 00 00 00  index_2.........
	0x01e0 00 00 14 00 00 00 00 0b 5f 5f 74 65 6d 70 5f 34  ........__temp_4
	0x01f0 00 90 01 00 00 00 00 00 00 00 00 14 00 00 00 00  ................
	0x0200 0b 5f 74 65 6d 70 5f 69 6e 64 65 78 5f 33 00 91  ._temp_index_3..
	0x0210 01 00 00 00 00 00 00 00 00 0b 5f 74 65 6d 70 5f  .........._temp_
	0x0220 69 6e 64 65 78 5f 34 00 93 01 00 00 00 00 00 00  index_4.........
	0x0230 00 00 0b 74 65 6d 70 5f 62 6f 6f 6c 5f 35 00 98  ...temp_bool_5..
	0x0240 01 00 00 00 00 00 00 00 00 00 00 00 00 00 06 00  ................
	0x0250 00 00 00 00 00 00 00 00 00 00 00 00 00 00 00 00  ................
	0x0260 00 00 00 00 00 00 00 a3 01 12 00 00 00 00 00 12  ................
	0x0270 00 00 00 00 00 00 00                             .......
	rel 0+0 t=24 type.*[36682000]int+0
	rel 0+0 t=24 type.[10000]int+0
	rel 0+0 t=24 type.[2]interface {}+0
	rel 0+0 t=24 type.[36682]int+0
	rel 0+0 t=24 type.int+0
	rel 13+8 t=1 "".func_Q+0
	rel 21+8 t=1 "".func_Q+895
	rel 31+4 t=30 gofile../home/vimuth/projects/parallely/diesel/src/bfs-dist/worker.go+0
	rel 46+4 t=29 go.info.int+0
	rel 50+4 t=29 go.loc."".func_Q+0
	rel 62+4 t=29 go.info.int+0
	rel 66+4 t=29 go.loc."".func_Q+54
	rel 84+4 t=29 go.info.[10000]int+0
	rel 88+4 t=29 go.loc."".func_Q+108
	rel 102+4 t=29 go.info.[36682]int+0
	rel 106+4 t=29 go.loc."".func_Q+162
	rel 122+4 t=29 go.info.[36682]int+0
	rel 126+4 t=29 go.loc."".func_Q+216
	rel 139+4 t=29 go.info.*[36682000]int+0
	rel 143+4 t=29 go.loc."".func_Q+270
	rel 163+4 t=29 go.info.int+0
	rel 172+4 t=29 go.info.int+0
	rel 176+4 t=29 go.loc."".func_Q+341
	rel 191+4 t=29 go.info.int+0
	rel 195+4 t=29 go.loc."".func_Q+392
	rel 211+4 t=29 go.info.int+0
	rel 215+4 t=29 go.loc."".func_Q+462
	rel 228+4 t=29 go.info.int+0
	rel 232+4 t=29 go.loc."".func_Q+513
	rel 247+4 t=29 go.info.int+0
	rel 251+4 t=29 go.loc."".func_Q+564
	rel 269+4 t=29 go.info.int+0
	rel 273+4 t=29 go.loc."".func_Q+615
	rel 281+4 t=29 go.info.int+0
	rel 285+4 t=29 go.loc."".func_Q+685
	rel 295+4 t=29 go.info.int+0
	rel 299+4 t=29 go.loc."".func_Q+736
	rel 310+4 t=29 go.info.int+0
	rel 314+4 t=29 go.loc."".func_Q+825
	rel 326+4 t=29 go.info.int+0
	rel 339+4 t=29 go.info.int+0
	rel 354+4 t=29 go.info.int+0
	rel 358+4 t=29 go.loc."".func_Q+895
	rel 369+4 t=29 go.info.int+0
	rel 373+4 t=29 go.loc."".func_Q+965
	rel 378+4 t=29 go.range."".func_Q+0
	rel 394+4 t=29 go.info.int+0
	rel 398+4 t=29 go.loc."".func_Q+1016
	rel 403+4 t=29 go.range."".func_Q+64
	rel 419+4 t=29 go.info.int+0
	rel 423+4 t=29 go.loc."".func_Q+1133
	rel 428+4 t=29 go.range."".func_Q+144
	rel 449+4 t=29 go.info.int+0
	rel 453+4 t=29 go.loc."".func_Q+1222
	rel 474+4 t=29 go.info.int+0
	rel 478+4 t=29 go.loc."".func_Q+1311
	rel 483+4 t=29 go.range."".func_Q+224
	rel 499+4 t=29 go.info.int+0
	rel 503+4 t=29 go.loc."".func_Q+1400
	rel 508+4 t=29 go.range."".func_Q+320
	rel 529+4 t=29 go.info.int+0
	rel 533+4 t=29 go.loc."".func_Q+1451
	rel 554+4 t=29 go.info.int+0
	rel 558+4 t=29 go.loc."".func_Q+1502
	rel 577+4 t=29 go.info.int+0
	rel 581+4 t=29 go.loc."".func_Q+1553
	rel 591+4 t=29 go.info.fmt.Println$abstract+0
	rel 595+8 t=1 "".func_Q+757
	rel 603+8 t=1 "".func_Q+816
	rel 611+4 t=30 gofile../home/vimuth/projects/parallely/diesel/src/bfs-dist/worker.go+0
	rel 618+4 t=29 go.info.fmt.Println$abstract+15
	rel 624+4 t=29 go.info.fmt.Println$abstract+23
go.range."".func_Q SDWARFRANGE size=416
	0x0000 ff ff ff ff ff ff ff ff 00 00 00 00 00 00 00 00  ................
	0x0010 54 01 00 00 00 00 00 00 97 02 00 00 00 00 00 00  T...............
	0x0020 40 03 00 00 00 00 00 00 75 03 00 00 00 00 00 00  @.......u.......
	0x0030 00 00 00 00 00 00 00 00 00 00 00 00 00 00 00 00  ................
	0x0040 ff ff ff ff ff ff ff ff 00 00 00 00 00 00 00 00  ................
	0x0050 59 01 00 00 00 00 00 00 fc 01 00 00 00 00 00 00  Y...............
	0x0060 88 02 00 00 00 00 00 00 97 02 00 00 00 00 00 00  ................
	0x0070 40 03 00 00 00 00 00 00 75 03 00 00 00 00 00 00  @.......u.......
	0x0080 00 00 00 00 00 00 00 00 00 00 00 00 00 00 00 00  ................
	0x0090 ff ff ff ff ff ff ff ff 00 00 00 00 00 00 00 00  ................
	0x00a0 59 01 00 00 00 00 00 00 cd 01 00 00 00 00 00 00  Y...............
	0x00b0 d2 01 00 00 00 00 00 00 fc 01 00 00 00 00 00 00  ................
	0x00c0 40 03 00 00 00 00 00 00 75 03 00 00 00 00 00 00  @.......u.......
	0x00d0 00 00 00 00 00 00 00 00 00 00 00 00 00 00 00 00  ................
	0x00e0 ff ff ff ff ff ff ff ff 00 00 00 00 00 00 00 00  ................
	0x00f0 59 01 00 00 00 00 00 00 70 01 00 00 00 00 00 00  Y.......p.......
	0x0100 7f 01 00 00 00 00 00 00 b0 01 00 00 00 00 00 00  ................
	0x0110 fa 01 00 00 00 00 00 00 fc 01 00 00 00 00 00 00  ................
	0x0120 4d 03 00 00 00 00 00 00 67 03 00 00 00 00 00 00  M.......g.......
	0x0130 00 00 00 00 00 00 00 00 00 00 00 00 00 00 00 00  ................
	0x0140 ff ff ff ff ff ff ff ff 00 00 00 00 00 00 00 00  ................
	0x0150 59 01 00 00 00 00 00 00 70 01 00 00 00 00 00 00  Y.......p.......
	0x0160 7f 01 00 00 00 00 00 00 82 01 00 00 00 00 00 00  ................
	0x0170 87 01 00 00 00 00 00 00 b0 01 00 00 00 00 00 00  ................
	0x0180 4d 03 00 00 00 00 00 00 67 03 00 00 00 00 00 00  M.......g.......
	0x0190 00 00 00 00 00 00 00 00 00 00 00 00 00 00 00 00  ................
	rel 8+8 t=1 "".func_Q+0
	rel 72+8 t=1 "".func_Q+0
	rel 152+8 t=1 "".func_Q+0
	rel 232+8 t=1 "".func_Q+0
	rel 328+8 t=1 "".func_Q+0
go.debuglines."".func_Q SDWARFMISC size=204
	0x0000 04 02 03 e2 00 14 0a 02 19 ff f6 06 55 06 08 4c  ............U..L
	0x0010 06 5f 06 37 03 01 46 06 55 06 ec 06 5f 06 74 06  ._.7..F.U..._.t.
	0x0020 5f 06 61 06 41 06 03 01 64 6a 03 01 6e 06 41 06  _.a.A...dj..n.A.
	0x0030 08 23 42 06 41 06 08 23 42 06 5f 06 a6 06 5f ba  .#B.A..#B._..._.
	0x0040 03 0a 46 06 60 06 37 06 62 06 30 06 a3 03 7b 29  ..F.`.7.b.0...{)
	0x0050 06 2d 06 24 06 55 06 2e 06 55 06 75 06 55 06 03  .-.$.U...U.u.U..
	0x0060 04 5a 06 55 06 c4 03 6f 33 06 2d 06 24 06 41 06  .Z.U...o3.-.$.A.
	0x0070 2f 06 55 06 9d 06 5f 2f 06 03 0b 28 06 41 06 02  /.U..._/...(.A..
	0x0080 19 03 69 fb 06 41 06 2d 06 37 06 56 06 5f 06 02  ..i..A.-.7.V._..
	0x0090 1a f6 06 41 06 43 06 5f 06 03 15 5a 06 5f 06 37  ...A.C._...Z._.7
	0x00a0 06 41 04 04 06 02 36 03 ea 00 fa 06 55 04 02 06  .A....6.....U...
	0x00b0 02 1c 03 95 7f fb 06 03 7e ab 03 7b 8d 8f 03 7e  ........~..{...~
	0x00c0 8d 06 91 03 60 15 04 01 03 99 7f 01              ....`.......
go.string."Starting worker thread: " SRODATA dupok size=24
	0x0000 53 74 61 72 74 69 6e 67 20 77 6f 72 6b 65 72 20  Starting worker 
	0x0010 74 68 72 65 61 64 3a 20                          thread: 
go.string."Starting reading the file" SRODATA dupok size=25
	0x0000 53 74 61 72 74 69 6e 67 20 72 65 61 64 69 6e 67  Starting reading
	0x0010 20 74 68 65 20 66 69 6c 65                        the file
go.string."Setting up the data structures" SRODATA dupok size=30
	0x0000 53 65 74 74 69 6e 67 20 75 70 20 74 68 65 20 64  Setting up the d
	0x0010 61 74 61 20 73 74 72 75 63 74 75 72 65 73        ata structures
go.string."Populating the data structures" SRODATA dupok size=30
	0x0000 50 6f 70 75 6c 61 74 69 6e 67 20 74 68 65 20 64  Populating the d
	0x0010 61 74 61 20 73 74 72 75 63 74 75 72 65 73        ata structures
go.string."../../inputs/p2p-Gnutella30.txt" SRODATA dupok size=31
	0x0000 2e 2e 2f 2e 2e 2f 69 6e 70 75 74 73 2f 70 32 70  ../../inputs/p2p
	0x0010 2d 47 6e 75 74 65 6c 6c 61 33 30 2e 74 78 74     -Gnutella30.txt
go.string."\n" SRODATA dupok size=1
	0x0000 0a                                               .
go.loc."".main SDWARFLOC size=1001
	0x0000 ff ff ff ff ff ff ff ff 00 00 00 00 00 00 00 00  ................
	0x0010 62 00 00 00 00 00 00 00 70 00 00 00 00 00 00 00  b.......p.......
	0x0020 01 00 50 70 00 00 00 00 00 00 00 f4 04 00 00 00  ..Pp............
	0x0030 00 00 00 03 00 91 d0 7e 00 00 00 00 00 00 00 00  .......~........
	0x0040 00 00 00 00 00 00 00 00 ff ff ff ff ff ff ff ff  ................
	0x0050 00 00 00 00 00 00 00 00 2a 02 00 00 00 00 00 00  ........*.......
	0x0060 34 02 00 00 00 00 00 00 05 00 93 08 50 93 08 34  4...........P..4
	0x0070 02 00 00 00 00 00 00 a0 02 00 00 00 00 00 00 08  ................
	0x0080 00 52 93 08 91 f0 7e 93 08 a0 02 00 00 00 00 00  .R....~.........
	0x0090 00 f4 04 00 00 00 00 00 00 0a 00 91 90 7f 93 08  ................
	0x00a0 91 f0 7e 93 08 00 00 00 00 00 00 00 00 00 00 00  ..~.............
	0x00b0 00 00 00 00 00 ff ff ff ff ff ff ff ff 00 00 00  ................
	0x00c0 00 00 00 00 00 21 01 00 00 00 00 00 00 2e 01 00  .....!..........
	0x00d0 00 00 00 00 00 07 00 50 93 08 93 08 93 08 2e 01  .......P........
	0x00e0 00 00 00 00 00 00 38 01 00 00 00 00 00 00 0a 00  ......8.........
	0x00f0 91 98 7f 93 08 52 93 08 93 08 38 01 00 00 00 00  .....R....8.....
	0x0100 00 00 b7 01 00 00 00 00 00 00 0d 00 91 98 7f 93  ................
	0x0110 08 91 f8 7e 93 08 51 93 08 b7 01 00 00 00 00 00  ...~..Q.........
	0x0120 00 f4 04 00 00 00 00 00 00 0f 00 91 98 7f 93 08  ................
	0x0130 91 f8 7e 93 08 91 80 7f 93 08 00 00 00 00 00 00  ..~.............
	0x0140 00 00 00 00 00 00 00 00 00 00 ff ff ff ff ff ff  ................
	0x0150 ff ff 00 00 00 00 00 00 00 00 ea 01 00 00 00 00  ................
	0x0160 00 00 ef 01 00 00 00 00 00 00 05 00 50 93 08 93  ............P...
	0x0170 08 ef 01 00 00 00 00 00 00 00 02 00 00 00 00 00  ................
	0x0180 00 06 00 50 93 08 52 93 08 00 02 00 00 00 00 00  ...P..R.........
	0x0190 00 25 02 00 00 00 00 00 00 05 00 93 08 52 93 08  .%...........R..
	0x01a0 00 00 00 00 00 00 00 00 00 00 00 00 00 00 00 00  ................
	0x01b0 ff ff ff ff ff ff ff ff 00 00 00 00 00 00 00 00  ................
	0x01c0 d4 02 00 00 00 00 00 00 f5 02 00 00 00 00 00 00  ................
	0x01d0 01 00 50 00 00 00 00 00 00 00 00 00 00 00 00 00  ..P.............
	0x01e0 00 00 00 ff ff ff ff ff ff ff ff 00 00 00 00 00  ................
	0x01f0 00 00 00 99 03 00 00 00 00 00 00 9d 03 00 00 00  ................
	0x0200 00 00 00 03 00 91 e0 7e 9d 03 00 00 00 00 00 00  .......~........
	0x0210 b8 03 00 00 00 00 00 00 01 00 50 b8 03 00 00 00  ..........P.....
	0x0220 00 00 00 a1 04 00 00 00 00 00 00 03 00 91 e0 7e  ...............~
	0x0230 ca 04 00 00 00 00 00 00 ef 04 00 00 00 00 00 00  ................
	0x0240 03 00 91 e0 7e 00 00 00 00 00 00 00 00 00 00 00  ....~...........
	0x0250 00 00 00 00 00 ff ff ff ff ff ff ff ff 00 00 00  ................
	0x0260 00 00 00 00 00 11 04 00 00 00 00 00 00 2d 04 00  .............-..
	0x0270 00 00 00 00 00 01 00 50 2d 04 00 00 00 00 00 00  .......P-.......
	0x0280 a1 04 00 00 00 00 00 00 03 00 91 d8 7e ca 04 00  ............~...
	0x0290 00 00 00 00 00 e3 04 00 00 00 00 00 00 03 00 91  ................
	0x02a0 d8 7e 00 00 00 00 00 00 00 00 00 00 00 00 00 00  .~..............
	0x02b0 00 00 ff ff ff ff ff ff ff ff 00 00 00 00 00 00  ................
	0x02c0 00 00 dc 03 00 00 00 00 00 00 e1 03 00 00 00 00  ................
	0x02d0 00 00 05 00 93 08 52 93 08 e1 03 00 00 00 00 00  ......R.........
	0x02e0 00 fa 03 00 00 00 00 00 00 06 00 50 93 08 52 93  ...........P..R.
	0x02f0 08 fa 03 00 00 00 00 00 00 a1 04 00 00 00 00 00  ................
	0x0300 00 0a 00 91 88 7f 93 08 91 e8 7e 93 08 ca 04 00  ..........~.....
	0x0310 00 00 00 00 00 ea 04 00 00 00 00 00 00 0a 00 91  ................
	0x0320 88 7f 93 08 91 e8 7e 93 08 ea 04 00 00 00 00 00  ......~.........
	0x0330 00 ef 04 00 00 00 00 00 00 05 00 93 08 52 93 08  .............R..
	0x0340 00 00 00 00 00 00 00 00 00 00 00 00 00 00 00 00  ................
	0x0350 ff ff ff ff ff ff ff ff 00 00 00 00 00 00 00 00  ................
	0x0360 48 04 00 00 00 00 00 00 a1 04 00 00 00 00 00 00  H...............
	0x0370 01 00 50 00 00 00 00 00 00 00 00 00 00 00 00 00  ..P.............
	0x0380 00 00 00 ff ff ff ff ff ff ff ff 00 00 00 00 00  ................
	0x0390 00 00 00 ea 01 00 00 00 00 00 00 ef 01 00 00 00  ................
	0x03a0 00 00 00 05 00 50 93 08 93 08 ef 01 00 00 00 00  .....P..........
	0x03b0 00 00 00 02 00 00 00 00 00 00 06 00 50 93 08 52  ............P..R
	0x03c0 93 08 00 02 00 00 00 00 00 00 25 02 00 00 00 00  ..........%.....
	0x03d0 00 00 05 00 93 08 52 93 08 00 00 00 00 00 00 00  ......R.........
	0x03e0 00 00 00 00 00 00 00 00 00                       .........
	rel 8+8 t=1 "".main+0
	rel 80+8 t=1 "".main+0
	rel 189+8 t=1 "".main+0
	rel 338+8 t=1 "".main+0
	rel 440+8 t=1 "".main+0
	rel 491+8 t=1 "".main+0
	rel 605+8 t=1 "".main+0
	rel 698+8 t=1 "".main+0
	rel 856+8 t=1 "".main+0
	rel 907+8 t=1 "".main+0
go.info."".main SDWARFINFO size=436
	0x0000 03 6d 61 69 6e 2e 6d 61 69 6e 00 00 00 00 00 00  .main.main......
	0x0010 00 00 00 00 00 00 00 00 00 00 00 01 9c 00 00 00  ................
	0x0020 00 01 0b 74 69 64 00 a7 01 00 00 00 00 00 00 00  ...tid..........
	0x0030 00 0b 64 61 74 61 5f 73 74 72 5f 61 72 72 61 79  ..data_str_array
	0x0040 00 b2 01 00 00 00 00 00 00 00 00 0b 64 61 74 61  ............data
	0x0050 5f 62 79 74 65 73 00 ac 01 00 00 00 00 00 00 00  _bytes..........
	0x0060 00 0b 64 61 74 61 5f 73 74 72 69 6e 67 00 b1 01  ..data_string...
	0x0070 00 00 00 00 00 00 00 00 15 00 00 00 00 00 00 00  ................
	0x0080 00 00 00 00 00 00 00 00 00 0b 69 00 b6 01 00 00  ..........i.....
	0x0090 00 00 00 00 00 00 00 14 00 00 00 00 0b 69 00 c0  .............i..
	0x00a0 01 00 00 00 00 00 00 00 00 14 00 00 00 00 0b 69  ...............i
	0x00b0 6e 64 65 78 31 00 c2 01 00 00 00 00 00 00 00 00  ndex1...........
	0x00c0 0b 65 6c 65 6d 65 6e 74 73 00 c1 01 00 00 00 00  .elements.......
	0x00d0 00 00 00 00 0b 69 6e 64 65 78 32 00 c3 01 00 00  .....index2.....
	0x00e0 00 00 00 00 00 00 00 00 06 00 00 00 00 00 00 00  ................
	0x00f0 00 00 00 00 00 00 00 00 00 00 00 00 00 00 00 00  ................
	0x0100 00 a8 01 12 00 00 00 00 00 12 00 00 00 00 00 00  ................
	0x0110 06 00 00 00 00 00 00 00 00 00 00 00 00 00 00 00  ................
	0x0120 00 00 00 00 00 00 00 00 00 b0 01 12 00 00 00 00  ................
	0x0130 00 12 00 00 00 00 00 00 06 00 00 00 00 00 00 00  ................
	0x0140 00 00 00 00 00 00 00 00 00 00 00 00 00 00 00 00  ................
	0x0150 00 b2 01 13 00 00 00 00 00 00 00 00 12 00 00 00  ................
	0x0160 00 00 00 06 00 00 00 00 00 00 00 00 00 00 00 00  ................
	0x0170 00 00 00 00 00 00 00 00 00 00 00 00 b4 01 12 00  ................
	0x0180 00 00 00 00 12 00 00 00 00 00 00 06 00 00 00 00  ................
	0x0190 00 00 00 00 00 00 00 00 00 00 00 00 00 00 00 00  ................
	0x01a0 00 00 00 00 bf 01 12 00 00 00 00 00 12 00 00 00  ................
	0x01b0 00 00 00 00                                      ....
	rel 0+0 t=24 type.*string+0
	rel 0+0 t=24 type.*uint8+0
	rel 0+0 t=24 type.[1]interface {}+0
	rel 0+0 t=24 type.[2]interface {}+0
	rel 0+0 t=24 type.int+0
	rel 11+8 t=1 "".main+0
	rel 19+8 t=1 "".main+1289
	rel 29+4 t=30 gofile../home/vimuth/projects/parallely/diesel/src/bfs-dist/worker.go+0
	rel 41+4 t=29 go.info.int+0
	rel 45+4 t=29 go.loc."".main+0
	rel 67+4 t=29 go.info.[]string+0
	rel 71+4 t=29 go.loc."".main+72
	rel 89+4 t=29 go.info.[]uint8+0
	rel 93+4 t=29 go.loc."".main+181
	rel 112+4 t=29 go.info.string+0
	rel 116+4 t=29 go.loc."".main+330
	rel 121+8 t=1 "".main+676
	rel 129+8 t=1 "".main+732
	rel 142+4 t=29 go.info.int+0
	rel 146+4 t=29 go.loc."".main+432
	rel 152+4 t=29 go.range."".main+0
	rel 161+4 t=29 go.info.int+0
	rel 165+4 t=29 go.loc."".main+483
	rel 170+4 t=29 go.range."".main+64
	rel 184+4 t=29 go.info.int+0
	rel 188+4 t=29 go.loc."".main+597
	rel 204+4 t=29 go.info.[]string+0
	rel 208+4 t=29 go.loc."".main+690
	rel 222+4 t=29 go.info.int+0
	rel 226+4 t=29 go.loc."".main+848
	rel 233+4 t=29 go.info.fmt.Println$abstract+0
	rel 237+8 t=1 "".main+189
	rel 245+8 t=1 "".main+248
	rel 253+4 t=30 gofile../home/vimuth/projects/parallely/diesel/src/bfs-dist/worker.go+0
	rel 260+4 t=29 go.info.fmt.Println$abstract+15
	rel 266+4 t=29 go.info.fmt.Println$abstract+23
	rel 273+4 t=29 go.info.fmt.Println$abstract+0
	rel 277+8 t=1 "".main+380
	rel 285+8 t=1 "".main+439
	rel 293+4 t=30 gofile../home/vimuth/projects/parallely/diesel/src/bfs-dist/worker.go+0
	rel 300+4 t=29 go.info.fmt.Println$abstract+15
	rel 306+4 t=29 go.info.fmt.Println$abstract+23
	rel 313+4 t=29 go.info.strings.Split$abstract+0
	rel 317+8 t=1 "".main+496
	rel 325+8 t=1 "".main+572
	rel 333+4 t=30 gofile../home/vimuth/projects/parallely/diesel/src/bfs-dist/worker.go+0
	rel 340+4 t=29 go.info.strings.Split$abstract+17
	rel 344+4 t=29 go.loc."".main+899
	rel 349+4 t=29 go.info.strings.Split$abstract+25
	rel 356+4 t=29 go.info.fmt.Println$abstract+0
	rel 360+8 t=1 "".main+613
	rel 368+8 t=1 "".main+674
	rel 376+4 t=30 gofile../home/vimuth/projects/parallely/diesel/src/bfs-dist/worker.go+0
	rel 383+4 t=29 go.info.fmt.Println$abstract+15
	rel 389+4 t=29 go.info.fmt.Println$abstract+23
	rel 396+4 t=29 go.info.fmt.Println$abstract+0
	rel 400+8 t=1 "".main+832
	rel 408+8 t=1 "".main+896
	rel 416+4 t=30 gofile../home/vimuth/projects/parallely/diesel/src/bfs-dist/worker.go+0
	rel 423+4 t=29 go.info.fmt.Println$abstract+15
	rel 429+4 t=29 go.info.fmt.Println$abstract+23
go.range."".main SDWARFRANGE size=144
	0x0000 ff ff ff ff ff ff ff ff 00 00 00 00 00 00 00 00  ................
	0x0010 82 03 00 00 00 00 00 00 9c 04 00 00 00 00 00 00  ................
	0x0020 ba 04 00 00 00 00 00 00 ef 04 00 00 00 00 00 00  ................
	0x0030 00 00 00 00 00 00 00 00 00 00 00 00 00 00 00 00  ................
	0x0040 ff ff ff ff ff ff ff ff 00 00 00 00 00 00 00 00  ................
	0x0050 82 03 00 00 00 00 00 00 94 03 00 00 00 00 00 00  ................
	0x0060 b4 03 00 00 00 00 00 00 9c 04 00 00 00 00 00 00  ................
	0x0070 ba 04 00 00 00 00 00 00 ef 04 00 00 00 00 00 00  ................
	0x0080 00 00 00 00 00 00 00 00 00 00 00 00 00 00 00 00  ................
	rel 8+8 t=1 "".main+0
	rel 72+8 t=1 "".main+0
go.debuglines."".main SDWARFMISC size=241
	0x0000 04 02 03 a0 01 14 0a ff f6 06 55 06 02 1a f6 06  ..........U.....
	0x0010 69 04 04 06 02 36 03 e5 00 fa 06 55 04 02 06 02  i....6.....U....
	0x0020 1c 03 9c 7f fb 7f 06 55 06 91 06 41 06 08 6a 7e  .......U...A..j~
	0x0030 7f 06 2d 04 04 06 08 03 dd 00 a0 06 55 04 02 06  ..-.........U...
	0x0040 02 1c 03 a3 7f fb 06 5f 06 08 69 06 41 06 74 04  ......._..i.A.t.
	0x0050 08 03 fd 00 1e 06 37 06 08 d7 06 41 04 02 06 03  ......7....A....
	0x0060 84 7f f1 06 2d 04 04 06 08 03 d9 00 a0 06 55 04  ....-.........U.
	0x0070 02 06 02 1e 03 a6 7f fb 26 06 55 06 60 06 55 06  ........&.U.`.U.
	0x0080 60 06 55 06 5c 06 69 06 28 7f 06 55 06 08 bb 06  `.U.\.i.(..U....
	0x0090 2d 04 04 06 08 03 ce 00 a0 06 55 04 02 06 02 21  -.........U....!
	0x00a0 03 b1 7f fb 03 03 28 06 55 06 03 7d 79 06 41 06  ......(.U..}y.A.
	0x00b0 37 06 41 06 c4 06 37 06 08 ba 06 2d 4a 92 06 08  7.A...7....-J...
	0x00c0 24 06 41 72 42 08 7f 06 87 06 55 06 08 a6 06 37  $.ArB.....U....7
	0x00d0 06 56 06 55 06 63 06 41 06 37 43 06 03 7e ab 8f  .V.U.c.A.7C..~..
	0x00e0 f3 72 03 7f 51 03 6e 3d 06 73 18 04 01 03 db 7e  .r..Q.n=.s.....~
	0x00f0 01                                               .
type..namedata.*[1]interface {}- SRODATA dupok size=19
	0x0000 00 00 10 2a 5b 31 5d 69 6e 74 65 72 66 61 63 65  ...*[1]interface
	0x0010 20 7b 7d                                          {}
type.*[1]interface {} SRODATA dupok size=56
	0x0000 08 00 00 00 00 00 00 00 08 00 00 00 00 00 00 00  ................
	0x0010 bf 03 a8 35 08 08 08 36 00 00 00 00 00 00 00 00  ...5...6........
	0x0020 00 00 00 00 00 00 00 00 00 00 00 00 00 00 00 00  ................
	0x0030 00 00 00 00 00 00 00 00                          ........
	rel 24+8 t=1 runtime.memequal64·f+0
	rel 32+8 t=1 runtime.gcbits.01+0
	rel 40+4 t=5 type..namedata.*[1]interface {}-+0
	rel 48+8 t=1 type.[1]interface {}+0
type.[1]interface {} SRODATA dupok size=72
	0x0000 10 00 00 00 00 00 00 00 10 00 00 00 00 00 00 00  ................
	0x0010 50 91 5b fa 02 08 08 11 00 00 00 00 00 00 00 00  P.[.............
	0x0020 00 00 00 00 00 00 00 00 00 00 00 00 00 00 00 00  ................
	0x0030 00 00 00 00 00 00 00 00 00 00 00 00 00 00 00 00  ................
	0x0040 01 00 00 00 00 00 00 00                          ........
	rel 24+8 t=1 runtime.nilinterequal·f+0
	rel 32+8 t=1 runtime.gcbits.02+0
	rel 40+4 t=5 type..namedata.*[1]interface {}-+0
	rel 44+4 t=6 type.*[1]interface {}+0
	rel 48+8 t=1 type.interface {}+0
	rel 56+8 t=1 type.[]interface {}+0
""..inittask SNOPTRDATA size=72
	0x0000 00 00 00 00 00 00 00 00 06 00 00 00 00 00 00 00  ................
	0x0010 00 00 00 00 00 00 00 00 00 00 00 00 00 00 00 00  ................
	0x0020 00 00 00 00 00 00 00 00 00 00 00 00 00 00 00 00  ................
	0x0030 00 00 00 00 00 00 00 00 00 00 00 00 00 00 00 00  ................
	0x0040 00 00 00 00 00 00 00 00                          ........
	rel 24+8 t=1 fmt..inittask+0
	rel 32+8 t=1 dieseldist..inittask+0
	rel 40+8 t=1 os..inittask+0
	rel 48+8 t=1 strconv..inittask+0
	rel 56+8 t=1 io/ioutil..inittask+0
	rel 64+8 t=1 strings..inittask+0
"".Num_threads SNOPTRBSS size=8
"".Edges SNOPTRBSS size=293456000
"".Inlinks SNOPTRBSS size=293456
"".Outlinks SNOPTRBSS size=293456
"".DistGlobal SNOPTRBSS size=293456
"".Num_nodes SNOPTRBSS size=8
"".Num_edges SNOPTRBSS size=8
"".NodesPerThread SNOPTRBSS size=8
"".Q SDATA size=24
	0x0000 00 00 00 00 00 00 00 00 0a 00 00 00 00 00 00 00  ................
	0x0010 0a 00 00 00 00 00 00 00                          ........
	rel 0+8 t=1 ""..stmp_7+0
""..stmp_0 SRODATA size=16
	0x0000 00 00 00 00 00 00 00 00 10 00 00 00 00 00 00 00  ................
	rel 0+8 t=1 go.string."Ending thread : "+0
""..stmp_1 SRODATA size=8
""..stmp_2 SRODATA size=16
	0x0000 00 00 00 00 00 00 00 00 10 00 00 00 00 00 00 00  ................
	rel 0+8 t=1 go.string."Ending thread : "+0
""..stmp_3 SRODATA size=16
	0x0000 00 00 00 00 00 00 00 00 18 00 00 00 00 00 00 00  ................
	rel 0+8 t=1 go.string."Starting worker thread: "+0
""..stmp_4 SRODATA size=16
	0x0000 00 00 00 00 00 00 00 00 19 00 00 00 00 00 00 00  ................
	rel 0+8 t=1 go.string."Starting reading the file"+0
""..stmp_5 SRODATA size=16
	0x0000 00 00 00 00 00 00 00 00 1e 00 00 00 00 00 00 00  ................
	rel 0+8 t=1 go.string."Setting up the data structures"+0
""..stmp_6 SRODATA size=16
	0x0000 00 00 00 00 00 00 00 00 1e 00 00 00 00 00 00 00  ................
	rel 0+8 t=1 go.string."Populating the data structures"+0
""..stmp_7 SNOPTRDATA size=80
	0x0000 01 00 00 00 00 00 00 00 02 00 00 00 00 00 00 00  ................
	0x0010 03 00 00 00 00 00 00 00 04 00 00 00 00 00 00 00  ................
	0x0020 05 00 00 00 00 00 00 00 06 00 00 00 00 00 00 00  ................
	0x0030 07 00 00 00 00 00 00 00 08 00 00 00 00 00 00 00  ................
	0x0040 09 00 00 00 00 00 00 00 0a 00 00 00 00 00 00 00  ................
type..namedata.*[]int- SRODATA dupok size=9
	0x0000 00 00 06 2a 5b 5d 69 6e 74                       ...*[]int
type.*[]int SRODATA dupok size=56
	0x0000 08 00 00 00 00 00 00 00 08 00 00 00 00 00 00 00  ................
	0x0010 1b 31 52 88 08 08 08 36 00 00 00 00 00 00 00 00  .1R....6........
	0x0020 00 00 00 00 00 00 00 00 00 00 00 00 00 00 00 00  ................
	0x0030 00 00 00 00 00 00 00 00                          ........
	rel 24+8 t=1 runtime.memequal64·f+0
	rel 32+8 t=1 runtime.gcbits.01+0
	rel 40+4 t=5 type..namedata.*[]int-+0
	rel 48+8 t=1 type.[]int+0
type.[]int SRODATA dupok size=56
	0x0000 18 00 00 00 00 00 00 00 08 00 00 00 00 00 00 00  ................
	0x0010 8e 66 f9 1b 02 08 08 17 00 00 00 00 00 00 00 00  .f..............
	0x0020 00 00 00 00 00 00 00 00 00 00 00 00 00 00 00 00  ................
	0x0030 00 00 00 00 00 00 00 00                          ........
	rel 32+8 t=1 runtime.gcbits.01+0
	rel 40+4 t=5 type..namedata.*[]int-+0
	rel 44+4 t=6 type.*[]int+0
	rel 48+8 t=1 type.int+0
type..eqfunc293456000 SRODATA dupok size=16
	0x0000 00 00 00 00 00 00 00 00 80 c8 7d 11 00 00 00 00  ..........}.....
	rel 0+8 t=1 runtime.memequal_varlen+0
runtime.gcbits. SRODATA dupok size=0
type..namedata.*[36682000]int- SRODATA dupok size=17
	0x0000 00 00 0e 2a 5b 33 36 36 38 32 30 30 30 5d 69 6e  ...*[36682000]in
	0x0010 74                                               t
type.[36682000]int SRODATA dupok size=72
	0x0000 80 c8 7d 11 00 00 00 00 00 00 00 00 00 00 00 00  ..}.............
	0x0010 38 ef 47 35 0a 08 08 11 00 00 00 00 00 00 00 00  8.G5............
	0x0020 00 00 00 00 00 00 00 00 00 00 00 00 00 00 00 00  ................
	0x0030 00 00 00 00 00 00 00 00 00 00 00 00 00 00 00 00  ................
	0x0040 10 b9 2f 02 00 00 00 00                          ../.....
	rel 24+8 t=1 type..eqfunc293456000+0
	rel 32+8 t=1 runtime.gcbits.+0
	rel 40+4 t=5 type..namedata.*[36682000]int-+0
	rel 44+4 t=6 type.*[36682000]int+0
	rel 48+8 t=1 type.int+0
	rel 56+8 t=1 type.[]int+0
type.*[36682000]int SRODATA dupok size=56
	0x0000 08 00 00 00 00 00 00 00 08 00 00 00 00 00 00 00  ................
	0x0010 67 d5 65 19 08 08 08 36 00 00 00 00 00 00 00 00  g.e....6........
	0x0020 00 00 00 00 00 00 00 00 00 00 00 00 00 00 00 00  ................
	0x0030 00 00 00 00 00 00 00 00                          ........
	rel 24+8 t=1 runtime.memequal64·f+0
	rel 32+8 t=1 runtime.gcbits.01+0
	rel 40+4 t=5 type..namedata.*[36682000]int-+0
	rel 48+8 t=1 type.[36682000]int+0
type..eqfunc80000 SRODATA dupok size=16
	0x0000 00 00 00 00 00 00 00 00 80 38 01 00 00 00 00 00  .........8......
	rel 0+8 t=1 runtime.memequal_varlen+0
type..namedata.*[10000]int- SRODATA dupok size=14
	0x0000 00 00 0b 2a 5b 31 30 30 30 30 5d 69 6e 74        ...*[10000]int
type.*[10000]int SRODATA dupok size=56
	0x0000 08 00 00 00 00 00 00 00 08 00 00 00 00 00 00 00  ................
	0x0010 75 09 09 b9 08 08 08 36 00 00 00 00 00 00 00 00  u......6........
	0x0020 00 00 00 00 00 00 00 00 00 00 00 00 00 00 00 00  ................
	0x0030 00 00 00 00 00 00 00 00                          ........
	rel 24+8 t=1 runtime.memequal64·f+0
	rel 32+8 t=1 runtime.gcbits.01+0
	rel 40+4 t=5 type..namedata.*[10000]int-+0
	rel 48+8 t=1 type.[10000]int+0
type.[10000]int SRODATA dupok size=72
	0x0000 80 38 01 00 00 00 00 00 00 00 00 00 00 00 00 00  .8..............
	0x0010 e3 6e dc 1e 0a 08 08 11 00 00 00 00 00 00 00 00  .n..............
	0x0020 00 00 00 00 00 00 00 00 00 00 00 00 00 00 00 00  ................
	0x0030 00 00 00 00 00 00 00 00 00 00 00 00 00 00 00 00  ................
	0x0040 10 27 00 00 00 00 00 00                          .'......
	rel 24+8 t=1 type..eqfunc80000+0
	rel 32+8 t=1 runtime.gcbits.+0
	rel 40+4 t=5 type..namedata.*[10000]int-+0
	rel 44+4 t=6 type.*[10000]int+0
	rel 48+8 t=1 type.int+0
	rel 56+8 t=1 type.[]int+0
type..eqfunc80 SRODATA dupok size=16
	0x0000 00 00 00 00 00 00 00 00 50 00 00 00 00 00 00 00  ........P.......
	rel 0+8 t=1 runtime.memequal_varlen+0
type..namedata.*[10]int- SRODATA dupok size=11
	0x0000 00 00 08 2a 5b 31 30 5d 69 6e 74                 ...*[10]int
type.*[10]int SRODATA dupok size=56
	0x0000 08 00 00 00 00 00 00 00 08 00 00 00 00 00 00 00  ................
	0x0010 31 16 e2 c1 08 08 08 36 00 00 00 00 00 00 00 00  1......6........
	0x0020 00 00 00 00 00 00 00 00 00 00 00 00 00 00 00 00  ................
	0x0030 00 00 00 00 00 00 00 00                          ........
	rel 24+8 t=1 runtime.memequal64·f+0
	rel 32+8 t=1 runtime.gcbits.01+0
	rel 40+4 t=5 type..namedata.*[10]int-+0
	rel 48+8 t=1 type.[10]int+0
type.[10]int SRODATA dupok size=72
	0x0000 50 00 00 00 00 00 00 00 00 00 00 00 00 00 00 00  P...............
	0x0010 02 48 96 2f 0a 08 08 11 00 00 00 00 00 00 00 00  .H./............
	0x0020 00 00 00 00 00 00 00 00 00 00 00 00 00 00 00 00  ................
	0x0030 00 00 00 00 00 00 00 00 00 00 00 00 00 00 00 00  ................
	0x0040 0a 00 00 00 00 00 00 00                          ........
	rel 24+8 t=1 type..eqfunc80+0
	rel 32+8 t=1 runtime.gcbits.+0
	rel 40+4 t=5 type..namedata.*[10]int-+0
	rel 44+4 t=6 type.*[10]int+0
	rel 48+8 t=1 type.int+0
	rel 56+8 t=1 type.[]int+0
type..eqfunc293456 SRODATA dupok size=16
	0x0000 00 00 00 00 00 00 00 00 50 7a 04 00 00 00 00 00  ........Pz......
	rel 0+8 t=1 runtime.memequal_varlen+0
type..namedata.*[36682]int- SRODATA dupok size=14
	0x0000 00 00 0b 2a 5b 33 36 36 38 32 5d 69 6e 74        ...*[36682]int
type.*[36682]int SRODATA dupok size=56
	0x0000 08 00 00 00 00 00 00 00 08 00 00 00 00 00 00 00  ................
	0x0010 12 14 d4 16 08 08 08 36 00 00 00 00 00 00 00 00  .......6........
	0x0020 00 00 00 00 00 00 00 00 00 00 00 00 00 00 00 00  ................
	0x0030 00 00 00 00 00 00 00 00                          ........
	rel 24+8 t=1 runtime.memequal64·f+0
	rel 32+8 t=1 runtime.gcbits.01+0
	rel 40+4 t=5 type..namedata.*[36682]int-+0
	rel 48+8 t=1 type.[36682]int+0
type.[36682]int SRODATA dupok size=72
	0x0000 50 7a 04 00 00 00 00 00 00 00 00 00 00 00 00 00  Pz..............
	0x0010 ef da 16 ba 0a 08 08 11 00 00 00 00 00 00 00 00  ................
	0x0020 00 00 00 00 00 00 00 00 00 00 00 00 00 00 00 00  ................
	0x0030 00 00 00 00 00 00 00 00 00 00 00 00 00 00 00 00  ................
	0x0040 4a 8f 00 00 00 00 00 00                          J.......
	rel 24+8 t=1 type..eqfunc293456+0
	rel 32+8 t=1 runtime.gcbits.+0
	rel 40+4 t=5 type..namedata.*[36682]int-+0
	rel 44+4 t=6 type.*[36682]int+0
	rel 48+8 t=1 type.int+0
	rel 56+8 t=1 type.[]int+0
type..namedata.*[]string- SRODATA dupok size=12
	0x0000 00 00 09 2a 5b 5d 73 74 72 69 6e 67              ...*[]string
type.*[]string SRODATA dupok size=56
	0x0000 08 00 00 00 00 00 00 00 08 00 00 00 00 00 00 00  ................
	0x0010 92 22 76 84 08 08 08 36 00 00 00 00 00 00 00 00  ."v....6........
	0x0020 00 00 00 00 00 00 00 00 00 00 00 00 00 00 00 00  ................
	0x0030 00 00 00 00 00 00 00 00                          ........
	rel 24+8 t=1 runtime.memequal64·f+0
	rel 32+8 t=1 runtime.gcbits.01+0
	rel 40+4 t=5 type..namedata.*[]string-+0
	rel 48+8 t=1 type.[]string+0
type.[]string SRODATA dupok size=56
	0x0000 18 00 00 00 00 00 00 00 08 00 00 00 00 00 00 00  ................
	0x0010 d3 a8 f3 0a 02 08 08 17 00 00 00 00 00 00 00 00  ................
	0x0020 00 00 00 00 00 00 00 00 00 00 00 00 00 00 00 00  ................
	0x0030 00 00 00 00 00 00 00 00                          ........
	rel 32+8 t=1 runtime.gcbits.01+0
	rel 40+4 t=5 type..namedata.*[]string-+0
	rel 44+4 t=6 type.*[]string+0
	rel 48+8 t=1 type.string+0
type..namedata.*[]uint8- SRODATA dupok size=11
	0x0000 00 00 08 2a 5b 5d 75 69 6e 74 38                 ...*[]uint8
type.*[]uint8 SRODATA dupok size=56
	0x0000 08 00 00 00 00 00 00 00 08 00 00 00 00 00 00 00  ................
	0x0010 a5 8e d0 69 08 08 08 36 00 00 00 00 00 00 00 00  ...i...6........
	0x0020 00 00 00 00 00 00 00 00 00 00 00 00 00 00 00 00  ................
	0x0030 00 00 00 00 00 00 00 00                          ........
	rel 24+8 t=1 runtime.memequal64·f+0
	rel 32+8 t=1 runtime.gcbits.01+0
	rel 40+4 t=5 type..namedata.*[]uint8-+0
	rel 48+8 t=1 type.[]uint8+0
type.[]uint8 SRODATA dupok size=56
	0x0000 18 00 00 00 00 00 00 00 08 00 00 00 00 00 00 00  ................
	0x0010 df 7e 2e 38 02 08 08 17 00 00 00 00 00 00 00 00  .~.8............
	0x0020 00 00 00 00 00 00 00 00 00 00 00 00 00 00 00 00  ................
	0x0030 00 00 00 00 00 00 00 00                          ........
	rel 32+8 t=1 runtime.gcbits.01+0
	rel 40+4 t=5 type..namedata.*[]uint8-+0
	rel 44+4 t=6 type.*[]uint8+0
	rel 48+8 t=1 type.uint8+0
go.itab.*os.File,io.Writer SRODATA dupok size=32
	0x0000 00 00 00 00 00 00 00 00 00 00 00 00 00 00 00 00  ................
	0x0010 44 b5 f3 33 00 00 00 00 00 00 00 00 00 00 00 00  D..3............
	rel 0+8 t=1 type.io.Writer+0
	rel 8+8 t=1 type.*os.File+0
	rel 24+8 t=1 os.(*File).Write+0
go.itablink.*os.File,io.Writer SRODATA dupok size=8
	0x0000 00 00 00 00 00 00 00 00                          ........
	rel 0+8 t=1 go.itab.*os.File,io.Writer+0
type..importpath.dieseldist. SRODATA dupok size=13
	0x0000 00 00 0a 64 69 65 73 65 6c 64 69 73 74           ...dieseldist
type..importpath.fmt. SRODATA dupok size=6
	0x0000 00 00 03 66 6d 74                                ...fmt
type..importpath.io/ioutil. SRODATA dupok size=12
	0x0000 00 00 09 69 6f 2f 69 6f 75 74 69 6c              ...io/ioutil
type..importpath.os. SRODATA dupok size=5
	0x0000 00 00 02 6f 73                                   ...os
type..importpath.strconv. SRODATA dupok size=10
	0x0000 00 00 07 73 74 72 63 6f 6e 76                    ...strconv
type..importpath.strings. SRODATA dupok size=10
	0x0000 00 00 07 73 74 72 69 6e 67 73                    ...strings
gclocals·e6397a44f8e1b6e77d0f200b4fba5269 SRODATA dupok size=10
	0x0000 02 00 00 00 03 00 00 00 01 00                    ..........
gclocals·69c1753bd5f81501d95132d08af04464 SRODATA dupok size=8
	0x0000 02 00 00 00 00 00 00 00                          ........
gclocals·9fb7f0986f647f17cb53dda1484e0f7a SRODATA dupok size=10
	0x0000 02 00 00 00 01 00 00 00 00 01                    ..........
gclocals·33cdeccccebe80329f1fdbee7f5874cb SRODATA dupok size=8
	0x0000 01 00 00 00 00 00 00 00                          ........
gclocals·7d2d5fca80364273fb07d5820a76fef4 SRODATA dupok size=8
	0x0000 03 00 00 00 00 00 00 00                          ........
gclocals·80b0d9ad63c242a848af3702a9ec7107 SRODATA dupok size=11
	0x0000 03 00 00 00 05 00 00 00 00 01 14                 ...........
gclocals·01cda64cba4a0424cb0086e223bd57f6 SRODATA dupok size=15
	0x0000 07 00 00 00 07 00 00 00 00 01 40 60 02 04 03     ..........@`...
"".func_0.stkobj SRODATA size=24
	0x0000 01 00 00 00 00 00 00 00 e0 ff ff ff ff ff ff ff  ................
	0x0010 00 00 00 00 00 00 00 00                          ........
	rel 16+8 t=1 type.[2]interface {}+0
gclocals·dc9b0298814590ca3ffc3a889546fc8b SRODATA dupok size=10
	0x0000 02 00 00 00 02 00 00 00 03 00                    ..........
gclocals·313a5bdbfadc4f007c002a3a3588596d SRODATA dupok size=18
	0x0000 0a 00 00 00 06 00 00 00 00 01 03 08 28 21 23 22  ............(!#"
	0x0010 24 04                                            $.
gclocals·d28d2f92e85a416440263467f2460f98 SRODATA dupok size=14
	0x0000 06 00 00 00 07 00 00 00 00 01 40 60 02 03        ..........@`..
"".func_Q.stkobj SRODATA size=24
	0x0000 01 00 00 00 00 00 00 00 e0 ff ff ff ff ff ff ff  ................
	0x0010 00 00 00 00 00 00 00 00                          ........
	rel 16+8 t=1 type.[2]interface {}+0
gclocals·0ce64bbc7cfa5ef04d41c861de81a3d7 SRODATA dupok size=8
	0x0000 08 00 00 00 00 00 00 00                          ........
gclocals·c2daa8f351d990179e4e1b4c7ad492e3 SRODATA dupok size=24
	0x0000 08 00 00 00 0d 00 00 00 00 00 00 14 04 00 04 01  ................
	0x0010 02 00 42 00 12 00 03 00                          ..B.....
gclocals·45951bc026e4ec9d644bd841ee8f9b08 SRODATA dupok size=20
	0x0000 0c 00 00 00 07 00 00 00 00 04 02 01 03 05 08 20  ............... 
	0x0010 60 28 06 48                                      `(.H
"".main.stkobj SRODATA size=72
	0x0000 04 00 00 00 00 00 00 00 b0 ff ff ff ff ff ff ff  ................
	0x0010 00 00 00 00 00 00 00 00 c0 ff ff ff ff ff ff ff  ................
	0x0020 00 00 00 00 00 00 00 00 d0 ff ff ff ff ff ff ff  ................
	0x0030 00 00 00 00 00 00 00 00 e0 ff ff ff ff ff ff ff  ................
	0x0040 00 00 00 00 00 00 00 00                          ........
	rel 16+8 t=1 type.[1]interface {}+0
	rel 32+8 t=1 type.[1]interface {}+0
	rel 48+8 t=1 type.[1]interface {}+0
	rel 64+8 t=1 type.[2]interface {}+0
